(dp1
V16079
p2
I16079
sV16078
p3
I16078
sV16073
p4
I16073
sV16072
p5
I16072
sV16071
p6
I16071
sV16070
p7
I16070
sV16077
p8
I16077
sV16076
p9
I16076
sV16075
p10
I16075
sV16074
p11
I16074
sV30118
p12
I30118
sV13022
p13
I13022
sV22009
p14
I22009
sV22008
p15
I22008
sV22001
p16
I22001
sV22003
p17
I22003
sV22002
p18
I22002
sV22005
p19
I22005
sV22004
p20
I22004
sV22007
p21
I22007
sV22006
p22
I22006
sV13028
p23
I13028
sV15121
p24
I15121
sV20120
p25
I20120
sV21101
p26
I21101
sV21100
p27
I21100
sV21103
p28
I21103
sV21102
p29
I21102
sV21105
p30
I21105
sV21104
p31
I21104
sV21107
p32
I21107
sV21106
p33
I21106
sV21109
p34
I21109
sV21108
p35
I21108
sV32013
p36
I32013
sV32012
p37
I32012
sV32011
p38
I32011
sV32010
p39
I32010
sV32017
p40
I32017
sV32016
p41
I32016
sV32015
p42
I32015
sV32014
p43
I32014
sV32019
p44
I32019
sV32018
p45
I32018
sV05028
p46
I5028
sV12019
p47
I12019
sV12018
p48
I12018
sV05029
p49
I5029
sV12015
p50
I12015
sV12014
p51
I12014
sV12017
p52
I12017
sV12016
p53
I12016
sV12011
p54
I12011
sV12010
p55
I12010
sV12013
p56
I12013
sV12012
p57
I12012
sV17030
p58
I17030
sV17031
p59
I17035
sV17032
p60
I32068
sV17033
p61
I17033
sV05020
p62
I5020
sV05021
p63
I5021
sV05022
p64
I5022
sV05023
p65
I5023
sV05024
p66
I5024
sV05025
p67
I5025
sV26023
p68
I26023
sV26022
p69
I26022
sV26021
p70
I26021
sV26020
p71
I26020
sV26027
p72
I26027
sV26026
p73
I26026
sV26025
p74
I26025
sV26024
p75
I26024
sV26029
p76
I26029
sV26028
p77
I26028
sV20520
p78
I20520
sV20521
p79
I20521
sV20522
p80
I20522
sV20523
p81
I20523
sV20524
p82
I20524
sV20525
p83
I20525
sV20526
p84
I20526
sV20527
p85
I20527
sV20528
p86
I20528
sV20529
p87
I20529
sV10006
p88
I10041
sV10007
p89
I10007
sV10001
p90
I10001
sV10002
p91
I10002
sV10003
p92
I10003
sV14017
p93
I14017
sV14016
p94
I14016
sV14014
p95
I14014
sV14013
p96
I14013
sV20095
p97
I20095
sV20418
p98
I20418
sV20419
p99
I20419
sV20414
p100
I20414
sV20415
p101
I20415
sV20416
p102
I20416
sV20417
p103
I20417
sV20410
p104
I20410
sV20411
p105
I20411
sV20412
p106
I20412
sV20413
p107
I20413
sV20225
p108
I20225
sV20224
p109
I20224
sV13058
p110
I13058
sV13059
p111
I13059
sV13052
p112
I13052
sV13053
p113
I13053
sV13050
p114
I13050
sV13051
p115
I13051
sV13056
p116
I13056
sV28005
p117
I28005
sV13054
p118
I13054
sV13055
p119
I13055
sV20228
p120
I20228
sV20258
p121
I20258
sV20259
p122
I20259
sV20252
p123
I20252
sV20253
p124
I20253
sV20250
p125
I20250
sV20251
p126
I20251
sV20256
p127
I20256
sV20257
p128
I20257
sV20254
p129
I20254
sV20255
p130
I20255
sV08052
p131
I8052
sV08053
p132
I8053
sV08050
p133
I8050
sV08051
p134
I8051
sV08056
p135
I8056
sV08057
p136
I8057
sV08054
p137
I8054
sV08055
p138
I8055
sV08058
p139
I8058
sV08059
p140
I8059
sV07079
p141
I7079
sV07078
p142
I7078
sV07075
p143
I7075
sV07074
p144
I7074
sV07077
p145
I7077
sV07076
p146
I7076
sV07071
p147
I7071
sV07070
p148
I7070
sV07073
p149
I7073
sV07072
p150
I7072
sV29026
p151
I29026
sV29027
p152
I29027
sV15043
p153
I15043
sV15042
p154
I15042
sV15041
p155
I15041
sV15040
p156
I15040
sV15047
p157
I15047
sV15046
p158
I15046
sV15045
p159
I15045
sV15044
p160
I15044
sV15049
p161
I15049
sV30012
p162
I30012
sV30019
p163
I30019
sV30018
p164
I30018
sV22018
p165
I22018
sV22012
p166
I22012
sV22013
p167
I22013
sV22010
p168
I22010
sV22011
p169
I22011
sV22016
p170
I22016
sV22017
p171
I22017
sV22014
p172
I22014
sV22015
p173
I22015
sV02003
p174
I2003
sV02002
p175
I2002
sV02001
p176
I2001
sV02005
p177
I2005
sV02004
p178
I2004
sV16064
p179
I16064
sV16065
p180
I16065
sV16066
p181
I16066
sV16067
p182
I16067
sV16060
p183
I16060
sV16061
p184
I16061
sV16062
p185
I16062
sV16063
p186
I16063
sV16068
p187
I16068
sV16069
p188
I16069
sV21112
p189
I21112
sV21113
p190
I21113
sV21110
p191
I21110
sV21111
p192
I21111
sV21116
p193
I21116
sV21117
p194
I21117
sV21114
p195
I21114
sV21115
p196
I21115
sV21118
p197
I21118
sV21119
p198
I21119
sV32008
p199
I32008
sV32009
p200
I32009
sV32004
p201
I32004
sV32005
p202
I32005
sV32006
p203
I32006
sV32007
p204
I32007
sV32001
p205
I32001
sV32002
p206
I32002
sV32003
p207
I32003
sV12008
p208
I12008
sV12009
p209
I12009
sV12006
p210
I12006
sV12007
p211
I12007
sV12004
p212
I12004
sV12005
p213
I12005
sV12002
p214
I12002
sV12003
p215
I12003
sV12001
p216
I12001
sV14083
p217
I14083
sV14088
p218
I14088
sV14089
p219
I14089
sV26038
p220
I26038
sV26039
p221
I26039
sV05038
p222
I5038
sV26034
p223
I26034
sV26035
p224
I26035
sV26036
p225
I26036
sV26037
p226
I26037
sV26030
p227
I26030
sV26031
p228
I26031
sV05031
p229
I5031
sV26033
p230
I26033
sV20089
p231
I20089
sV20088
p232
I20088
sV20087
p233
I20087
sV20086
p234
I20086
sV20085
p235
I20085
sV20084
p236
I20084
sV20083
p237
I20083
sV20082
p238
I20082
sV20081
p239
I20081
sV20080
p240
I20080
sV20075
p241
I20075
sV30041
p242
I30041
sV20469
p243
I20469
sV20468
p244
I20468
sV20399
p245
I20399
sV20398
p246
I20398
sV14093
p247
I14093
sV14092
p248
I14092
sV14091
p249
I14091
sV14090
p250
I14090
sV20393
p251
I20393
sV20392
p252
I20392
sV20391
p253
I20391
sV20390
p254
I20390
sV20397
p255
I20397
sV20396
p256
I20396
sV20395
p257
I20395
sV20394
p258
I20394
sV13067
p259
I13067
sV13066
p260
I13066
sV13065
p261
I13065
sV13064
p262
I13064
sV13063
p263
I13063
sV13062
p264
I13062
sV13061
p265
I13061
sV13060
p266
I13060
sV13069
p267
I13069
sV13068
p268
I13068
sV20267
p269
I20267
sV20266
p270
I20266
sV20265
p271
I20265
sV20264
p272
I20264
sV20263
p273
I20263
sV20262
p274
I20262
sV20261
p275
I20261
sV20260
p276
I20260
sV20269
p277
I20269
sV20268
p278
I20268
sV20065
p279
I20065
sV20064
p280
I20064
sV20067
p281
I20067
sV20066
p282
I20066
sV20061
p283
I20061
sV20060
p284
I20060
sV20063
p285
I20063
sV20062
p286
I20062
sV20069
p287
I20069
sV20068
p288
I20068
sV08067
p289
I8067
sV08066
p290
I8066
sV08065
p291
I8065
sV08064
p292
I8064
sV08063
p293
I8068
sV08062
p294
I8062
sV08061
p295
I8061
sV08060
p296
I8060
sV07068
p297
I7068
sV07069
p298
I7069
sV07066
p299
I7066
sV07067
p300
I7067
sV07064
p301
I7064
sV07065
p302
I7065
sV07062
p303
I7062
sV07063
p304
I7063
sV07060
p305
I7060
sV07061
p306
I7061
sV19034
p307
I19034
sV20241
p308
I20241
sV11025
p309
I11025
sV11024
p310
I11024
sV11027
p311
I11027
sV11026
p312
I11026
sV15058
p313
I15058
sV15059
p314
I15059
sV11023
p315
I11023
sV11022
p316
I11022
sV15054
p317
I15054
sV15055
p318
I15055
sV15056
p319
I15056
sV15057
p320
I15057
sV15050
p321
I15050
sV15051
p322
I15051
sV15052
p323
I15052
sV15053
p324
I15053
sV06007
p325
I6007
sV06006
p326
I6006
sV06005
p327
I6005
sV06004
p328
I6004
sV06003
p329
I6003
sV06002
p330
I6002
sV06001
p331
I6001
sV06009
p332
I6009
sV06008
p333
I6008
sV16011
p334
I16011
sV16010
p335
I16010
sV16013
p336
I16013
sV16012
p337
I16012
sV16015
p338
I16015
sV16014
p339
I16014
sV16017
p340
I16017
sV16016
p341
I16016
sV16019
p342
I16019
sV16018
p343
I16018
sV21129
p344
I21129
sV21128
p345
I21128
sV21127
p346
I21127
sV21126
p347
I21126
sV21125
p348
I21125
sV21124
p349
I21124
sV21123
p350
I21123
sV21122
p351
I21122
sV21121
p352
I21121
sV21120
p353
I21120
sV20079
p354
I20079
sV13005
p355
I13005
sV12039
p356
I12039
sV12038
p357
I12082
sV13004
p358
I13004
sV12033
p359
I12033
sV12032
p360
I12032
sV12031
p361
I12031
sV12030
p362
I12030
sV12037
p363
I12037
sV12036
p364
I12036
sV12035
p365
I12035
sV12034
p366
I12034
sV13006
p367
I13006
sV13001
p368
I13001
sV15022
p369
I15022
sV13002
p370
I13002
sV26049
p371
I26049
sV26048
p372
I26048
sV26041
p373
I26041
sV26040
p374
I26040
sV26043
p375
I26043
sV26042
p376
I26042
sV26045
p377
I26045
sV26044
p378
I26044
sV26047
p379
I26047
sV26046
p380
I26046
sV20098
p381
I20098
sV20099
p382
I20099
sV20090
p383
I20090
sV20091
p384
I20091
sV20092
p385
I20092
sV20093
p386
I20093
sV20094
p387
I20094
sV30048
p388
I30048
sV20096
p389
I20096
sV20097
p390
I20097
sV30049
p391
I30049
sV05002
p392
I5002
sV05003
p393
I5003
sV20029
p394
I20029
sV05001
p395
I5001
sV05006
p396
I5006
sV30040
p397
I30040
sV05007
p398
I5040
sV20384
p399
I20384
sV20385
p400
I20385
sV20386
p401
I20386
sV20387
p402
I20387
sV20380
p403
I20380
sV20381
p404
I20381
sV20382
p405
I20382
sV20383
p406
I20383
sV05005
p407
I5005
sV20388
p408
I20388
sV20389
p409
I20389
sV14080
p410
I14080
sV14081
p411
I14081
sV20478
p412
I20478
sV20479
p413
I20479
sV14084
p414
I14084
sV14085
p415
I14085
sV14086
p416
I14086
sV14087
p417
I14087
sV20472
p418
I20472
sV20473
p419
I20473
sV20470
p420
I20470
sV20471
p421
I20471
sV20476
p422
I20476
sV20477
p423
I20477
sV20474
p424
I20474
sV20475
p425
I20475
sV13070
p426
I13070
sV13071
p427
I13071
sV13072
p428
I13072
sV13073
p429
I13073
sV13074
p430
I13074
sV13075
p431
I13075
sV13076
p432
I13076
sV13077
p433
I13077
sV13078
p434
I13078
sV13079
p435
I13079
sV07058
p436
I7058
sV30187
p437
I30187
sV30186
p438
I30186
sV30185
p439
I30185
sV30184
p440
I30184
sV30183
p441
I30183
sV30182
p442
I30182
sV30181
p443
I30181
sV30180
p444
I30180
sV14033
p445
I14033
sV30189
p446
I30213
sV30188
p447
I30188
sV20270
p448
I20270
sV20271
p449
I20271
sV20272
p450
I20272
sV20273
p451
I20273
sV20274
p452
I20274
sV20275
p453
I20275
sV20276
p454
I20276
sV20277
p455
I20277
sV20278
p456
I20278
sV20279
p457
I20279
sV07051
p458
I7051
sV20076
p459
I20076
sV20077
p460
I20077
sV20074
p461
I20074
sV07050
p462
I7050
sV20072
p463
I20072
sV20073
p464
I20073
sV20070
p465
I20070
sV20071
p466
I20071
sV07057
p467
I7057
sV20078
p468
I20078
sV07056
p469
I7056
sV14039
p470
I14039
sV07055
p471
I7055
sV14038
p472
I14038
sV07054
p473
I7054
sV20205
p474
I20205
sV20204
p475
I20204
sV20207
p476
I20207
sV19036
p477
I19036
sV07059
p478
I7059
sV20206
p479
I20206
sV15119
p480
I15119
sV15118
p481
I15118
sV16021
p482
I16021
sV15115
p483
I15115
sV15114
p484
I15114
sV15117
p485
I15117
sV15116
p486
I15116
sV15111
p487
I15111
sV15110
p488
I15110
sV15113
p489
I15113
sV15112
p490
I15112
sV19035
p491
I19035
sV20203
p492
I20203
sV16024
p493
I16024
sV28026
p494
I28026
sV19033
p495
I19033
sV19030
p496
I19030
sV19031
p497
I19031
sV10026
p498
I10026
sV10027
p499
I10027
sV10024
p500
I10024
sV15029
p501
I15029
sV15028
p502
I15028
sV11034
p503
I11034
sV11035
p504
I11035
sV11032
p505
I11032
sV25002
p506
I25002
sV11030
p507
I11030
sV11031
p508
I11031
sV15021
p509
I15021
sV15020
p510
I15020
sV15023
p511
I15023
sV25003
p512
I25003
sV15025
p513
I15025
sV15024
p514
I15024
sV15027
p515
I15027
sV15026
p516
I15026
sV31104
p517
I31104
sV31105
p518
I31105
sV31106
p519
I31106
sV31100
p520
I31100
sV31101
p521
I31101
sV31102
p522
I31102
sV31103
p523
I31103
sV10021
p524
I10021
sV21013
p525
I21013
sV21012
p526
I21012
sV27015
p527
I27015
sV27014
p528
I27014
sV27017
p529
I27017
sV27016
p530
I27016
sV27011
p531
I27011
sV27010
p532
I27010
sV27013
p533
I27013
sV27012
p534
I27012
sV06010
p535
I6010
sV19023
p536
I19063
sV20230
p537
I20230
sV16002
p538
I16002
sV16003
p539
I16003
sV16001
p540
I16001
sV16006
p541
I16006
sV16007
p542
I16007
sV16004
p543
I16004
sV16005
p544
I16005
sV16008
p545
I16008
sV16009
p546
I16009
sV21138
p547
I21138
sV21139
p548
I21139
sV21130
p549
I21130
sV21131
p550
I21131
sV21132
p551
I21132
sV21133
p552
I21133
sV21134
p553
I21134
sV21135
p554
I21135
sV21136
p555
I21136
sV21137
p556
I21137
sV12024
p557
I12024
sV12025
p558
I12025
sV12026
p559
I12026
sV12027
p560
I12027
sV12020
p561
I12020
sV12021
p562
I12021
sV12022
p563
I12022
sV12023
p564
I12023
sV12028
p565
I12028
sV12029
p566
I12029
sV14003
p567
I14003
sV26058
p568
I26058
sV26059
p569
I26059
sV26052
p570
I26052
sV26053
p571
I26053
sV26050
p572
I26050
sV26051
p573
I26051
sV26056
p574
I26056
sV26057
p575
I26057
sV26054
p576
I26054
sV26055
p577
I26055
sV11036
p578
I11036
sV11037
p579
I32063
sV11033
p580
I11033
sV20007
p581
I20007
sV20006
p582
I20006
sV20005
p583
I20005
sV20004
p584
I20004
sV20003
p585
I20003
sV20002
p586
I20002
sV20447
p587
I20447
sV20446
p588
I20446
sV20445
p589
I20445
sV20444
p590
I20444
sV20443
p591
I20443
sV20442
p592
I20442
sV20441
p593
I20441
sV20440
p594
I20440
sV20449
p595
I20449
sV20448
p596
I20448
sV14079
p597
I14079
sV14078
p598
I14078
sV14075
p599
I14075
sV14074
p600
I14074
sV14077
p601
I14126
sV14076
p602
I14076
sV14071
p603
I14071
sV14070
p604
I14070
sV14073
p605
I14073
sV14072
p606
I14072
sV13084
p607
I13084
sV13081
p608
I13081
sV13080
p609
I13080
sV13083
p610
I13083
sV13082
p611
I13082
sV30190
p612
I30190
sV30191
p613
I30191
sV30192
p614
I30192
sV30193
p615
I30193
sV30194
p616
I30194
sV30195
p617
I30195
sV30196
p618
I30196
sV30197
p619
I30197
sV30198
p620
I30198
sV30199
p621
I30199
sV20289
p622
I20289
sV20288
p623
I20288
sV20285
p624
I20285
sV20284
p625
I20284
sV20287
p626
I20287
sV20286
p627
I20286
sV20281
p628
I20281
sV20280
p629
I20280
sV20283
p630
I20283
sV20282
p631
I20282
sV20043
p632
I20573
sV20042
p633
I20042
sV20041
p634
I20041
sV20040
p635
I20040
sV20047
p636
I20047
sV20046
p637
I20046
sV20045
p638
I20045
sV20044
p639
I20044
sV20049
p640
I20049
sV20048
p641
I20048
sV32037
p642
I32037
sV32036
p643
I32036
sV07044
p644
I7044
sV07045
p645
I7045
sV07046
p646
I7046
sV07047
p647
I7047
sV07040
p648
I7040
sV07041
p649
I7041
sV07012
p650
I7012
sV07043
p651
I7043
sV07048
p652
I7048
sV07049
p653
I7049
sV15108
p654
I15108
sV15109
p655
I15109
sV15106
p656
I15106
sV15107
p657
I15107
sV15104
p658
I15104
sV15105
p659
I15105
sV15102
p660
I15102
sV15103
p661
I15103
sV15100
p662
I15100
sV15101
p663
I15101
sV18020
p664
I18020
sV21167
p665
I21167
sV32038
p666
I32038
sV31009
p667
I31009
sV31008
p668
I31008
sV31005
p669
I31005
sV31004
p670
I31004
sV31007
p671
I31007
sV31006
p672
I31006
sV31001
p673
I31001
sV31003
p674
I31003
sV31002
p675
I31002
sV11008
p676
I11008
sV11003
p677
I11047
sV11002
p678
I11002
sV15038
p679
I15038
sV15039
p680
I15039
sV11007
p681
I11007
sV11006
p682
I11006
sV11005
p683
I11005
sV11004
p684
I11004
sV15032
p685
I15032
sV15033
p686
I15033
sV15030
p687
I15030
sV15031
p688
I15031
sV15036
p689
I15036
sV15037
p690
I15037
sV15034
p691
I15034
sV15035
p692
I15035
sV27008
p693
I27008
sV27009
p694
I27009
sV27006
p695
I27006
sV27007
p696
I27007
sV27004
p697
I27004
sV27005
p698
I27005
sV27002
p699
I27002
sV27003
p700
I27003
sV27001
p701
I27001
sV16109
p702
I16109
sV16108
p703
I16108
sV16103
p704
I16103
sV16102
p705
I16102
sV16101
p706
I16101
sV16100
p707
I16100
sV16107
p708
I16107
sV16106
p709
I16106
sV16105
p710
I16105
sV16104
p711
I16104
sV20112
p712
I20112
sV14019
p713
I14019
sV19029
p714
I19029
sV19028
p715
I19028
sV16039
p716
I16039
sV16038
p717
I16038
sV16037
p718
I16037
sV16036
p719
I16036
sV19027
p720
I19027
sV16034
p721
I16034
sV16033
p722
I16033
sV16032
p723
I16032
sV16031
p724
I16031
sV16030
p725
I16030
sV32057
p726
I32057
sV32056
p727
I32056
sV32055
p728
I32055
sV32054
p729
I32054
sV32053
p730
I32053
sV32052
p731
I32052
sV32051
p732
I32051
sV32050
p733
I32050
sV32058
p734
I32058
sV12051
p735
I12051
sV12050
p736
I12050
sV12053
p737
I12053
sV12052
p738
I12052
sV12055
p739
I12055
sV12054
p740
I12054
sV12057
p741
I12057
sV12056
p742
I12056
sV12059
p743
I12059
sV12058
p744
I12058
sV20051
p745
I20051
sV21097
p746
I21097
sV21096
p747
I21096
sV21095
p748
I21095
sV21094
p749
I21094
sV21093
p750
I21093
sV21092
p751
I21092
sV21091
p752
I21091
sV21090
p753
I21090
sV21099
p754
I21099
sV21098
p755
I21098
sV26067
p756
I26067
sV26066
p757
I26066
sV26065
p758
I26065
sV26064
p759
I26064
sV26063
p760
I26063
sV26062
p761
I26062
sV26061
p762
I26061
sV26060
p763
I26060
sV26069
p764
I26069
sV26068
p765
I26068
sV09013
p766
I9013
sV20318
p767
I32066
sV07027
p768
I7027
sV14012
p769
I14012
sV20450
p770
I20450
sV20451
p771
I20451
sV20452
p772
I20452
sV20453
p773
I20453
sV20454
p774
I20454
sV20455
p775
I20455
sV20456
p776
I20456
sV20457
p777
I20457
sV20458
p778
I20458
sV20459
p779
I20459
sV29019
p780
I29019
sV14068
p781
I14068
sV14069
p782
I14069
sV14066
p783
I14066
sV14067
p784
I14067
sV14064
p785
I14064
sV14065
p786
I14065
sV14062
p787
I14062
sV14063
p788
I14063
sV14060
p789
I14060
sV14061
p790
I14061
sV29018
p791
I29018
sV30169
p792
I30169
sV30168
p793
I30168
sV30165
p794
I30165
sV30164
p795
I30164
sV30167
p796
I30167
sV30166
p797
I30166
sV30161
p798
I30161
sV30160
p799
I30216
sV30163
p800
I30163
sV30162
p801
I30162
sV20298
p802
I20298
sV20299
p803
I20299
sV20296
p804
I20296
sV20297
p805
I20297
sV20294
p806
I20294
sV20295
p807
I20295
sV20292
p808
I20292
sV20293
p809
I20293
sV20290
p810
I20290
sV20291
p811
I20291
sV24025
p812
I24025
sV24024
p813
I24024
sV24027
p814
I24027
sV24026
p815
I24026
sV24021
p816
I24021
sV24020
p817
I24020
sV24023
p818
I24023
sV24022
p819
I24022
sV20054
p820
I20054
sV20055
p821
I20055
sV20056
p822
I20056
sV20057
p823
I20572
sV24029
p824
I24029
sV24028
p825
I24028
sV20052
p826
I20052
sV20053
p827
I20053
sV07031
p828
I7031
sV07030
p829
I7030
sV07033
p830
I7033
sV07032
p831
I7032
sV07035
p832
I7035
sV07034
p833
I7034
sV07037
p834
I7037
sV07036
p835
I7036
sV07039
p836
I7039
sV07038
p837
I7038
sV11039
p838
I11039
sV20436
p839
I20436
sV30015
p840
I30015
sV30014
p841
I30014
sV30017
p842
I30017
sV30016
p843
I30016
sV30011
p844
I30011
sV30010
p845
I30010
sV31018
p846
I31018
sV31019
p847
I31019
sV31016
p848
I31016
sV31017
p849
I31017
sV31014
p850
I31014
sV31015
p851
I31015
sV31012
p852
I31012
sV31013
p853
I31013
sV31010
p854
I31010
sV31011
p855
I31011
sV15007
p856
I15007
sV15006
p857
I15006
sV15005
p858
I15005
sV15004
p859
I15004
sV15003
p860
I15003
sV15002
p861
I15002
sV15001
p862
I32060
sV15009
p863
I15009
sV15008
p864
I15008
sV11018
p865
I11018
sV11019
p866
I11019
sV11014
p867
I11048
sV11015
p868
I11015
sV11016
p869
I11016
sV11017
p870
I11017
sV11010
p871
I11010
sV11011
p872
I11011
sV11012
p873
I11012
sV11013
p874
I11013
sV23011
p875
I32070
sV23010
p876
I23010
sV20210
p877
I20210
sV20211
p878
I20211
sV21031
p879
I21031
sV14053
p880
I14053
sV20114
p881
I20114
sV20117
p882
I20117
sV11038
p883
I11038
sV20116
p884
I20116
sV20111
p885
I20111
sV14056
p886
I14056
sV16028
p887
I16028
sV16029
p888
I16029
sV20113
p889
I20113
sV19038
p890
I19038
sV19039
p891
I19039
sV16020
p892
I16020
sV19037
p893
I19037
sV16022
p894
I16022
sV16023
p895
I16023
sV19032
p896
I19032
sV16025
p897
I16025
sV16026
p898
I16026
sV16027
p899
I16027
sV32040
p900
I32040
sV32041
p901
I32041
sV32042
p902
I32042
sV32043
p903
I32043
sV32044
p904
I32044
sV32045
p905
I32045
sV32046
p906
I32046
sV32047
p907
I32059
sV32048
p908
I32048
sV32049
p909
I32049
sV12042
p910
I12042
sV12043
p911
I12043
sV12040
p912
I12040
sV12041
p913
I12041
sV12046
p914
I12046
sV12047
p915
I12047
sV12044
p916
I12044
sV12045
p917
I12045
sV12048
p918
I12048
sV12049
p919
I12049
sV16110
p920
I16110
sV16111
p921
I16111
sV16112
p922
I16112
sV16113
p923
I16113
sV21080
p924
I21080
sV21081
p925
I21081
sV21082
p926
I21082
sV21083
p927
I21083
sV21084
p928
I21084
sV21085
p929
I21085
sV21086
p930
I21086
sV21087
p931
I21087
sV21088
p932
I21088
sV21089
p933
I21089
sV26070
p934
I26070
sV26071
p935
I26071
sV26072
p936
I26072
sV10025
p937
I10025
sV14059
p938
I14059
sV14058
p939
I14058
sV20119
p940
I20119
sV20118
p941
I20118
sV20115
p942
I20115
sV14052
p943
I14052
sV14051
p944
I14051
sV14050
p945
I14050
sV14057
p946
I14057
sV20110
p947
I20110
sV14055
p948
I14055
sV14054
p949
I14054
sV13057
p950
I13057
sV30178
p951
I30178
sV30179
p952
I30179
sV30176
p953
I30176
sV30177
p954
I30177
sV30174
p955
I30174
sV30175
p956
I30175
sV30172
p957
I30172
sV30173
p958
I30173
sV30170
p959
I30170
sV30171
p960
I30171
sV24036
p961
I24036
sV24037
p962
I24037
sV24034
p963
I24034
sV24035
p964
I24035
sV24032
p965
I24032
sV24033
p966
I24033
sV24030
p967
I24030
sV24031
p968
I24031
sV20021
p969
I20021
sV20020
p970
I20020
sV20023
p971
I20023
sV20022
p972
I20022
sV20025
p973
I20025
sV20434
p974
I20434
sV24038
p975
I24038
sV24039
p976
I24039
sV20343
p977
I20343
sV20432
p978
I20432
sV20433
p979
I20433
sV07022
p980
I7022
sV07023
p981
I7023
sV07020
p982
I7020
sV15048
p983
I15048
sV15120
p984
I15120
sV20430
p985
I20430
sV15122
p986
I15122
sV07025
p987
I7025
sV07028
p988
I7028
sV20431
p989
I20431
sV20335
p990
I20335
sV20334
p991
I20334
sV20337
p992
I20337
sV20336
p993
I20336
sV20331
p994
I20331
sV20330
p995
I20330
sV20333
p996
I20574
sV20332
p997
I20332
sV20339
p998
I20339
sV20338
p999
I20338
sV30006
p1000
I30006
sV30007
p1001
I30007
sV30004
p1002
I30004
sV30005
p1003
I30005
sV30002
p1004
I30002
sV30003
p1005
I30003
sV30001
p1006
I30001
sV31023
p1007
I31023
sV31022
p1008
I31022
sV31021
p1009
I31021
sV31020
p1010
I31020
sV31027
p1011
I31027
sV31026
p1012
I31026
sV30008
p1013
I30008
sV30009
p1014
I30009
sV15010
p1015
I15010
sV15011
p1016
I15011
sV15012
p1017
I15012
sV15013
p1018
I15013
sV15014
p1019
I15014
sV15015
p1020
I15015
sV15016
p1021
I15016
sV29029
p1022
I29029
sV15018
p1023
I15018
sV15019
p1024
I15019
sV23002
p1025
I23002
sV23003
p1026
I23003
sV23001
p1027
I23001
sV23006
p1028
I23006
sV23007
p1029
I23007
sV23004
p1030
I23004
sV23005
p1031
I23005
sV23008
p1032
I23008
sV23009
p1033
I23009
sV20024
p1034
I20024
sV20027
p1035
I20027
sV20026
p1036
I20026
sV11029
p1037
I11029
sV11028
p1038
I11028
sV19009
p1039
I19009
sV19008
p1040
I19008
sV19003
p1041
I19003
sV19002
p1042
I19002
sV19001
p1043
I19001
sV19007
p1044
I19007
sV19006
p1045
I19006
sV19005
p1046
I19005
sV19004
p1047
I19004
sV15124
p1048
I15124
sV20030
p1049
I20030
sV15125
p1050
I15125
sV07021
p1051
I7021
sV12079
p1052
I12079
sV20010
p1053
I20010
sV12077
p1054
I12077
sV07026
p1055
I7026
sV12075
p1056
I12075
sV12074
p1057
I12074
sV12073
p1058
I12073
sV12072
p1059
I12072
sV12071
p1060
I12071
sV12070
p1061
I12070
sV07024
p1062
I7024
sV15123
p1063
I15123
sV07029
p1064
I7029
sV21079
p1065
I21079
sV21078
p1066
I21078
sV21075
p1067
I21075
sV21074
p1068
I21074
sV21077
p1069
I21077
sV21076
p1070
I21076
sV21071
p1071
I21071
sV21070
p1072
I21070
sV21073
p1073
I21073
sV21072
p1074
I21072
sV03008
p1075
I3008
sV14008
p1076
I14008
sV14009
p1077
I14009
sV21211
p1078
I21211
sV21210
p1079
I21210
sV21213
p1080
I21213
sV21212
p1081
I21212
sV21215
p1082
I21215
sV21214
p1083
I21214
sV21217
p1084
I21217
sV21216
p1085
I21216
sV21189
p1086
I21189
sV21188
p1087
I21188
sV21181
p1088
I21181
sV21180
p1089
I21180
sV21183
p1090
I21183
sV21182
p1091
I21182
sV21185
p1092
I21185
sV21184
p1093
I21184
sV21187
p1094
I21187
sV21186
p1095
I21186
sV10004
p1096
I10004
sV14002
p1097
I14002
sV14044
p1098
I14044
sV29017
p1099
I29017
sV14046
p1100
I14046
sV14047
p1101
I14047
sV14040
p1102
I14040
sV14041
p1103
I14041
sV14042
p1104
I14042
sV29016
p1105
I29016
sV14048
p1106
I14048
sV14049
p1107
I14049
sV10039
p1108
I10039
sV10038
p1109
I10038
sV20108
p1110
I20108
sV20109
p1111
I20109
sV10035
p1112
I10035
sV20238
p1113
I20238
sV10037
p1114
I10037
sV10036
p1115
I10036
sV10031
p1116
I10031
sV20103
p1117
I20103
sV10033
p1118
I10033
sV20239
p1119
I20239
sV20234
p1120
I20234
sV20235
p1121
I20235
sV20236
p1122
I20236
sV30149
p1123
I30149
sV20237
p1124
I20237
sV30143
p1125
I30143
sV30142
p1126
I30142
sV30141
p1127
I30141
sV30140
p1128
I30140
sV30147
p1129
I30147
sV30146
p1130
I30146
sV30145
p1131
I30145
sV20231
p1132
I20231
sV30013
p1133
I30013
sV28016
p1134
I28016
sV28017
p1135
I28017
sV24003
p1136
I24003
sV24002
p1137
I24002
sV24001
p1138
I24001
sV20039
p1139
I20039
sV24007
p1140
I24007
sV24006
p1141
I24006
sV24005
p1142
I24005
sV24004
p1143
I24004
sV20032
p1144
I20032
sV20033
p1145
I20033
sV24009
p1146
I24009
sV24008
p1147
I24008
sV20036
p1148
I20036
sV20037
p1149
I20037
sV20034
p1150
I20034
sV20035
p1151
I20035
sV03001
p1152
I3001
sV03002
p1153
I3002
sV07018
p1154
I7018
sV07017
p1155
I7017
sV07016
p1156
I7016
sV07015
p1157
I7015
sV07014
p1158
I7014
sV07013
p1159
I7013
sV03009
p1160
I3009
sV07011
p1161
I7011
sV07010
p1162
I7010
sV29009
p1163
I29009
sV20028
p1164
I20028
sV20326
p1165
I20326
sV20327
p1166
I20327
sV20324
p1167
I20324
sV20325
p1168
I20325
sV20322
p1169
I20322
sV20323
p1170
I20323
sV20320
p1171
I20320
sV20321
p1172
I20321
sV20437
p1173
I20437
sV20328
p1174
I20328
sV20329
p1175
I20329
sV10022
p1176
I10022
sV30033
p1177
I30214
sV30032
p1178
I30032
sV30031
p1179
I30031
sV30030
p1180
I30030
sV30037
p1181
I30037
sV30036
p1182
I30036
sV30035
p1183
I30035
sV30034
p1184
I30034
sV30039
p1185
I30039
sV30038
p1186
I30038
sV31029
p1187
I31029
sV31028
p1188
I31028
sV20150
p1189
I20150
sV31025
p1190
I31025
sV31024
p1191
I31024
sV31034
p1192
I31034
sV31035
p1193
I31035
sV31036
p1194
I31036
sV31037
p1195
I31037
sV31030
p1196
I31030
sV31031
p1197
I31031
sV31032
p1198
I31032
sV31033
p1199
I31033
sV31038
p1200
I31038
sV31039
p1201
I31039
sV15017
p1202
I15017
sV19014
p1203
I19068
sV19015
p1204
I19064
sV19016
p1205
I19070
sV19017
p1206
I19017
sV19010
p1207
I19069
sV19011
p1208
I19011
sV19012
p1209
I19012
sV19013
p1210
I19013
sV19018
p1211
I19018
sV19019
p1212
I19019
sV12068
p1213
I12068
sV12069
p1214
I12069
sV12060
p1215
I12060
sV12061
p1216
I12061
sV12062
p1217
I12062
sV12063
p1218
I12063
sV12064
p1219
I12064
sV12065
p1220
I12065
sV12066
p1221
I12066
sV12067
p1222
I12067
sV-1
p1223
I-1
sV-2
p1224
I-2
sV20568
p1225
I20568
sV20569
p1226
I20569
sV21068
p1227
I21068
sV21069
p1228
I21069
sV21066
p1229
I21066
sV21067
p1230
I21067
sV21064
p1231
I21064
sV21065
p1232
I21065
sV21062
p1233
I21062
sV21063
p1234
I21063
sV21060
p1235
I21060
sV21061
p1236
I21061
sV20562
p1237
I20562
sV20563
p1238
I20563
sV14043
p1239
I14043
sV21208
p1240
I21208
sV21209
p1241
I21209
sV21202
p1242
I21202
sV21203
p1243
I21203
sV21200
p1244
I21200
sV21201
p1245
I21201
sV21206
p1246
I21206
sV21207
p1247
I21207
sV21204
p1248
I21204
sV21205
p1249
I21205
sV21198
p1250
I21198
sV21199
p1251
I21199
sV21192
p1252
I21192
sV21193
p1253
I21193
sV21190
p1254
I21190
sV21191
p1255
I21191
sV21196
p1256
I21196
sV21197
p1257
I21197
sV21194
p1258
I21194
sV21195
p1259
I21195
sV12080
p1260
I12080
sV12081
p1261
I12081
sV14031
p1262
I14031
sV14030
p1263
I14030
sV20489
p1264
I20489
sV14032
p1265
I14032
sV14035
p1266
I14035
sV14034
p1267
I14034
sV14037
p1268
I14037
sV14036
p1269
I14036
sV20483
p1270
I20483
sV20482
p1271
I20482
sV20481
p1272
I20481
sV20480
p1273
I20480
sV20487
p1274
I20487
sV20486
p1275
I20486
sV20485
p1276
I20485
sV20484
p1277
I20484
sV20139
p1278
I20139
sV20138
p1279
I20138
sV10028
p1280
I10028
sV10029
p1281
I10029
sV20133
p1282
I20133
sV20132
p1283
I20132
sV20131
p1284
I20131
sV20130
p1285
I20130
sV20137
p1286
I20137
sV20136
p1287
I20136
sV20135
p1288
I20135
sV20134
p1289
I20134
sV20555
p1290
I20555
sV20554
p1291
I20554
sV20557
p1292
I20557
sV20556
p1293
I20556
sV20551
p1294
I20551
sV20550
p1295
I20550
sV20553
p1296
I20553
sV20552
p1297
I20552
sV20559
p1298
I20559
sV20558
p1299
I20558
sV20009
p1300
I20009
sV20008
p1301
I20008
sV24018
p1302
I24018
sV24019
p1303
I24019
sV24014
p1304
I24014
sV24015
p1305
I24015
sV24016
p1306
I24016
sV24017
p1307
I24017
sV24010
p1308
I24010
sV24011
p1309
I24011
sV24012
p1310
I24059
sV24013
p1311
I24013
sV07008
p1312
I7008
sV07009
p1313
I7009
sV07001
p1314
I7001
sV07002
p1315
I7002
sV07003
p1316
I7003
sV07004
p1317
I7004
sV07005
p1318
I7005
sV07006
p1319
I7006
sV07007
p1320
I7007
sV20016
p1321
I20016
sV09010
p1322
I9018
sV20313
p1323
I20313
sV20312
p1324
I20312
sV20311
p1325
I20311
sV20310
p1326
I20310
sV20317
p1327
I20317
sV20316
p1328
I20316
sV20315
p1329
I20315
sV20314
p1330
I20314
sV20319
p1331
I32067
sV09012
p1332
I9012
sV30154
p1333
I30154
sV30155
p1334
I30155
sV30156
p1335
I30156
sV30157
p1336
I30157
sV30150
p1337
I30150
sV30151
p1338
I30151
sV30152
p1339
I30152
sV30153
p1340
I30153
sV20425
p1341
I20425
sV30158
p1342
I30158
sV30159
p1343
I30159
sV08015
p1344
I8015
sV30028
p1345
I30028
sV30029
p1346
I30029
sV30024
p1347
I30024
sV30025
p1348
I30025
sV30026
p1349
I30026
sV30027
p1350
I30027
sV30020
p1351
I30020
sV30021
p1352
I30021
sV30022
p1353
I30022
sV30023
p1354
I30023
sV11046
p1355
I11046
sV11045
p1356
I11045
sV11044
p1357
I11044
sV11043
p1358
I11043
sV11042
p1359
I11042
sV11041
p1360
I11041
sV11040
p1361
I11040
sV20424
p1362
I20424
sV29060
p1363
I29060
sV28043
p1364
I28043
sV28042
p1365
I28042
sV28041
p1366
I28041
sV28040
p1367
I28040
sV20426
p1368
I20426
sV31041
p1369
I31041
sV31040
p1370
I31040
sV31043
p1371
I31043
sV31042
p1372
I31042
sV31045
p1373
I31045
sV31044
p1374
I31044
sV31047
p1375
I31047
sV31046
p1376
I31046
sV31049
p1377
I31049
sV31048
p1378
I31048
sV20549
p1379
I20576
sV20127
p1380
I20127
sV16099
p1381
I16099
sV16098
p1382
I16098
sV16091
p1383
I16091
sV16090
p1384
I16090
sV16093
p1385
I16093
sV16092
p1386
I16092
sV16095
p1387
I16095
sV16094
p1388
I16094
sV16097
p1389
I16097
sV16096
p1390
I16096
sV13010
p1391
I13010
sV13011
p1392
I13011
sV21059
p1393
I21059
sV21058
p1394
I21058
sV21053
p1395
I21053
sV21052
p1396
I21052
sV21051
p1397
I21051
sV21050
p1398
I21050
sV21057
p1399
I21057
sV21056
p1400
I21056
sV21055
p1401
I21055
sV21054
p1402
I21054
sV05026
p1403
I5026
sV13019
p1404
I13019
sV05027
p1405
I5027
sV07042
p1406
I7042
sV20124
p1407
I20124
sV20125
p1408
I20125
sV20126
p1409
I20126
sV14021
p1410
I14021
sV14026
p1411
I14026
sV20121
p1412
I20121
sV20122
p1413
I20122
sV20123
p1414
I20123
sV14028
p1415
I14028
sV14029
p1416
I14029
sV20128
p1417
I20128
sV20129
p1418
I20129
sV05037
p1419
I5037
sV10019
p1420
I10019
sV10018
p1421
I10018
sV05036
p1422
I5036
sV10013
p1423
I10013
sV10012
p1424
I10012
sV10011
p1425
I10011
sV10010
p1426
I10010
sV10017
p1427
I10017
sV05035
p1428
I5035
sV10015
p1429
I10015
sV10014
p1430
I10014
sV05034
p1431
I5034
sV05033
p1432
I5033
sV05032
p1433
I5032
sV26032
p1434
I26032
sV05030
p1435
I5030
sV14022
p1436
I14022
sV14023
p1437
I14023
sV07053
p1438
I7053
sV14020
p1439
I14020
sV20546
p1440
I20546
sV20547
p1441
I20547
sV20544
p1442
I20544
sV20545
p1443
I20545
sV20542
p1444
I20542
sV20543
p1445
I20543
sV20540
p1446
I20540
sV20017
p1447
I20017
sV20018
p1448
I20018
sV20019
p1449
I20019
sV20200
p1450
I20200
sV20548
p1451
I20548
sV14027
p1452
I14027
sV14024
p1453
I14024
sV07052
p1454
I7052
sV13029
p1455
I13029
sV14025
p1456
I14025
sV11021
p1457
I11021
sV20494
p1458
I20494
sV20495
p1459
I20495
sV20496
p1460
I20496
sV20497
p1461
I20497
sV20490
p1462
I20490
sV20491
p1463
I20491
sV20492
p1464
I20492
sV20493
p1465
I20493
sV20498
p1466
I20498
sV20499
p1467
I20499
sV20216
p1468
I20216
sV20217
p1469
I20217
sV28030
p1470
I28030
sV04009
p1471
I4009
sV04008
p1472
I4008
sV20215
p1473
I20215
sV04001
p1474
I4001
sV20212
p1475
I20212
sV04003
p1476
I4003
sV04002
p1477
I4002
sV04005
p1478
I4005
sV04004
p1479
I4004
sV04007
p1480
I4007
sV28037
p1481
I28037
sV20308
p1482
I20308
sV20309
p1483
I20309
sV20304
p1484
I20304
sV20305
p1485
I20305
sV20306
p1486
I20306
sV20307
p1487
I20307
sV20300
p1488
I20300
sV20301
p1489
I20301
sV20302
p1490
I20302
sV20303
p1491
I20303
sV30121
p1492
I30121
sV30120
p1493
I30120
sV30123
p1494
I30123
sV30122
p1495
I30122
sV30125
p1496
I30125
sV30124
p1497
I30124
sV30127
p1498
I30127
sV30126
p1499
I30126
sV30129
p1500
I30129
sV30128
p1501
I30128
sV07101
p1502
I7101
sV30058
p1503
I30058
sV07103
p1504
I7103
sV07102
p1505
I7102
sV07105
p1506
I7105
sV07104
p1507
I7104
sV07107
p1508
I7107
sV07106
p1509
I7106
sV07109
p1510
I7109
sV07108
p1511
I7108
sV30053
p1512
I30053
sV30052
p1513
I30052
sV30055
p1514
I30055
sV30054
p1515
I30054
sV30057
p1516
I30057
sV30056
p1517
I30056
sV18013
p1518
I18013
sV18012
p1519
I18012
sV18011
p1520
I18011
sV18010
p1521
I18010
sV18017
p1522
I18017
sV18016
p1523
I18016
sV18015
p1524
I18015
sV18014
p1525
I18014
sV18019
p1526
I18019
sV18018
p1527
I18018
sV10016
p1528
I10016
sV29053
p1529
I29053
sV29052
p1530
I29052
sV29051
p1531
I29051
sV29050
p1532
I29050
sV29057
p1533
I29057
sV29056
p1534
I29056
sV29055
p1535
I29055
sV29054
p1536
I29054
sV29059
p1537
I29059
sV29058
p1538
I29058
sV11020
p1539
I11020
sV31052
p1540
I31052
sV31053
p1541
I31053
sV31050
p1542
I31050
sV31051
p1543
I31051
sV31056
p1544
I31056
sV31057
p1545
I31057
sV31054
p1546
I31054
sV31055
p1547
I31055
sV31058
p1548
I31058
sV31059
p1549
I31059
sV12078
p1550
I12078
sV12076
p1551
I12076
sV16088
p1552
I16088
sV16089
p1553
I16089
sV16082
p1554
I16082
sV16083
p1555
I16083
sV16080
p1556
I16080
sV16081
p1557
I16081
sV16086
p1558
I16086
sV16087
p1559
I16087
sV16084
p1560
I16084
sV16085
p1561
I16085
sV21044
p1562
I21044
sV21045
p1563
I21045
sV21046
p1564
I21046
sV21047
p1565
I21047
sV21040
p1566
I21040
sV21041
p1567
I21041
sV21042
p1568
I21042
sV21043
p1569
I21043
sV21048
p1570
I21048
sV21049
p1571
I21049
sV11001
p1572
I11001
sV30212
p1573
I30212
sV14097
p1574
I14097
sV09005
p1575
I9005
sV14096
p1576
I14096
sV14095
p1577
I14095
sV14094
p1578
I14094
sV30211
p1579
I30211
sV20014
p1580
I20014
sV11009
p1581
I11009
sV20015
p1582
I20015
sV20151
p1583
I20151
sV10005
p1584
I10005
sV20153
p1585
I20153
sV20152
p1586
I20152
sV20155
p1587
I20155
sV20154
p1588
I20154
sV20157
p1589
I20157
sV20156
p1590
I20156
sV20159
p1591
I20159
sV20158
p1592
I20158
sV14015
p1593
I14015
sV20541
p1594
I20541
sV10008
p1595
I10008
sV10009
p1596
I10009
sV14011
p1597
I14011
sV14010
p1598
I14010
sV20461
p1599
I20461
sV20460
p1600
I20460
sV20463
p1601
I20463
sV31078
p1602
I31078
sV20462
p1603
I20462
sV31079
p1604
I31079
sV20465
p1605
I20465
sV20464
p1606
I20464
sV20467
p1607
I20467
sV20466
p1608
I20466
sV20570
p1609
I20570
sV31076
p1610
I31076
sV31077
p1611
I31077
sV08009
p1612
I8009
sV08008
p1613
I8008
sV08005
p1614
I8005
sV08004
p1615
I8004
sV08007
p1616
I8007
sV08006
p1617
I8006
sV08001
p1618
I8001
sV08003
p1619
I8003
sV08002
p1620
I8002
sV04010
p1621
I4010
sV04011
p1622
I4011
sV20427
p1623
I20427
sV20379
p1624
I20379
sV20378
p1625
I20378
sV20371
p1626
I20371
sV20370
p1627
I20370
sV20373
p1628
I20373
sV20372
p1629
I20372
sV20375
p1630
I20375
sV20374
p1631
I20374
sV20377
p1632
I20377
sV20376
p1633
I20376
sV30132
p1634
I30132
sV30133
p1635
I30133
sV30130
p1636
I30130
sV30131
p1637
I30131
sV30136
p1638
I30136
sV30137
p1639
I30137
sV30134
p1640
I30134
sV30135
p1641
I30135
sV30138
p1642
I30138
sV30139
p1643
I30139
sV13009
p1644
I13009
sV13008
p1645
I13008
sV07112
p1646
I7112
sV07113
p1647
I7113
sV07110
p1648
I7110
sV07111
p1649
I7111
sV07116
p1650
I7116
sV07117
p1651
I7117
sV07114
p1652
I7114
sV07115
p1653
I7115
sV30042
p1654
I30042
sV30043
p1655
I30043
sV07118
p1656
I7118
sV07119
p1657
I7119
sV30046
p1658
I30046
sV30047
p1659
I30047
sV30044
p1660
I30044
sV30045
p1661
I30045
sV18008
p1662
I18008
sV18009
p1663
I18009
sV18004
p1664
I18004
sV18005
p1665
I18005
sV18006
p1666
I18006
sV18007
p1667
I18007
sV18001
p1668
I18001
sV18002
p1669
I18002
sV18003
p1670
I18003
sV28021
p1671
I28021
sV28020
p1672
I28020
sV28023
p1673
I28023
sV28022
p1674
I28022
sV28025
p1675
I28025
sV28024
p1676
I28024
sV28027
p1677
I28027
sV20202
p1678
I20202
sV28029
p1679
I28029
sV28028
p1680
I28028
sV20209
p1681
I32065
sV20208
p1682
I32064
sV29048
p1683
I29048
sV29049
p1684
I29062
sV29044
p1685
I29044
sV29045
p1686
I29045
sV29046
p1687
I29046
sV29047
p1688
I29047
sV29040
p1689
I29040
sV29041
p1690
I29041
sV29042
p1691
I29042
sV29043
p1692
I29064
sV13018
p1693
I13018
sV31069
p1694
I31069
sV31068
p1695
I31068
sV31067
p1696
I31067
sV31066
p1697
I31066
sV31065
p1698
I31065
sV31064
p1699
I31064
sV31063
p1700
I31063
sV31062
p1701
I31062
sV31061
p1702
I31061
sV31060
p1703
I31060
sV31085
p1704
I31085
sV31084
p1705
I31084
sV31087
p1706
I31087
sV31086
p1707
I31086
sV31081
p1708
I31081
sV31080
p1709
I31080
sV31083
p1710
I31083
sV31082
p1711
I31082
sV31089
p1712
I31089
sV31088
p1713
I31088
sV05004
p1714
I5004
sV19049
p1715
I19049
sV19048
p1716
I19048
sV19047
p1717
I19047
sV19046
p1718
I19046
sV19045
p1719
I19045
sV19044
p1720
I19044
sV19043
p1721
I19043
sV19042
p1722
I19042
sV19041
p1723
I19041
sV19040
p1724
I19040
sV10023
p1725
I10023
sV10020
p1726
I10020
sV14018
p1727
I14018
sV04006
p1728
I4006
sV30144
p1729
I30144
sV21030
p1730
I21030
sV21033
p1731
I21033
sV21032
p1732
I21032
sV21035
p1733
I21035
sV21034
p1734
I21034
sV21037
p1735
I21037
sV21036
p1736
I21036
sV21039
p1737
I21039
sV21038
p1738
I21038
sV05008
p1739
I5008
sV05009
p1740
I5009
sV13007
p1741
I13007
sV21149
p1742
I21149
sV21148
p1743
I21148
sV21145
p1744
I21145
sV21144
p1745
I21144
sV21147
p1746
I21147
sV21146
p1747
I21146
sV21141
p1748
I21141
sV21140
p1749
I21140
sV21143
p1750
I21143
sV21142
p1751
I21142
sV20142
p1752
I20142
sV20143
p1753
I20143
sV20140
p1754
I20140
sV20141
p1755
I20141
sV20146
p1756
I20146
sV20147
p1757
I20147
sV20144
p1758
I20144
sV20145
p1759
I20145
sV14001
p1760
I14001
sV20148
p1761
I20148
sV20149
p1762
I20149
sV14004
p1763
I14004
sV14005
p1764
I14005
sV14006
p1765
I14006
sV14007
p1766
I14007
sV20488
p1767
I20488
sV30059
p1768
I30059
sV07100
p1769
I7100
sV13003
p1770
I13003
sV24047
p1771
I24047
sV24046
p1772
I24046
sV24045
p1773
I24045
sV24044
p1774
I24044
sV24043
p1775
I24043
sV24042
p1776
I24042
sV24041
p1777
I24041
sV24040
p1778
I24040
sV20564
p1779
I20564
sV20565
p1780
I20565
sV20566
p1781
I32062
sV20567
p1782
I20567
sV20560
p1783
I20560
sV20561
p1784
I20561
sV24049
p1785
I24049
sV24048
p1786
I24048
sV05011
p1787
I5011
sV05010
p1788
I5010
sV05013
p1789
I5013
sV30051
p1790
I30051
sV05012
p1791
I5012
sV30050
p1792
I30050
sV05015
p1793
I5015
sV05014
p1794
I5014
sV09015
p1795
I9015
sV09014
p1796
I9014
sV09017
p1797
I9017
sV09016
p1798
I9016
sV09011
p1799
I9011
sV05017
p1800
I5017
sV08018
p1801
I8018
sV08019
p1802
I8019
sV08016
p1803
I8016
sV08017
p1804
I8017
sV08014
p1805
I8014
sV30210
p1806
I30210
sV08012
p1807
I8012
sV08013
p1808
I8013
sV08010
p1809
I8010
sV08011
p1810
I8011
sV20368
p1811
I20368
sV20369
p1812
I20369
sV20362
p1813
I20362
sV20363
p1814
I20363
sV20360
p1815
I20360
sV20361
p1816
I20361
sV20366
p1817
I20366
sV20367
p1818
I20367
sV20364
p1819
I20364
sV20365
p1820
I20365
sV13016
p1821
I13016
sV13017
p1822
I13017
sV13014
p1823
I13014
sV13015
p1824
I13015
sV13012
p1825
I13012
sV13013
p1826
I13013
sV30109
p1827
I30109
sV30108
p1828
I30108
sV30107
p1829
I30107
sV30106
p1830
I30106
sV30105
p1831
I32069
sV30104
p1832
I30104
sV30103
p1833
I30103
sV30102
p1834
I30102
sV30101
p1835
I30101
sV30100
p1836
I30100
sV14045
p1837
I14045
sV28032
p1838
I28032
sV28033
p1839
I28033
sV20214
p1840
I20214
sV28031
p1841
I28031
sV28036
p1842
I28036
sV20213
p1843
I20213
sV28034
p1844
I28034
sV28035
p1845
I28035
sV28038
p1846
I28038
sV28039
p1847
I28039
sV20218
p1848
I20218
sV20219
p1849
I20219
sV29039
p1850
I29039
sV29038
p1851
I29038
sV29031
p1852
I29031
sV29030
p1853
I29030
sV29033
p1854
I29033
sV29032
p1855
I29032
sV29035
p1856
I29035
sV29034
p1857
I29034
sV29037
p1858
I29063
sV29036
p1859
I29036
sV19025
p1860
I19065
sV14121
p1861
I14121
sV19024
p1862
I19067
sV14120
p1863
I14120
sV16035
p1864
I16035
sV19026
p1865
I19026
sV19021
p1866
I19066
sV10034
p1867
I10034
sV19020
p1868
I19061
sV30077
p1869
I30077
sV30076
p1870
I30076
sV30075
p1871
I30075
sV30074
p1872
I30215
sV30073
p1873
I30073
sV30072
p1874
I30072
sV30071
p1875
I30071
sV30070
p1876
I30070
sV31070
p1877
I31070
sV31071
p1878
I31071
sV31072
p1879
I31072
sV31073
p1880
I31073
sV31074
p1881
I31074
sV31075
p1882
I31075
sV30079
p1883
I30079
sV30078
p1884
I30078
sV31096
p1885
I31096
sV31097
p1886
I31097
sV31094
p1887
I31094
sV31095
p1888
I31095
sV31092
p1889
I31092
sV31093
p1890
I31093
sV31090
p1891
I31090
sV31091
p1892
I31091
sV20104
p1893
I20104
sV31098
p1894
I31098
sV31099
p1895
I31099
sV20105
p1896
I20105
sV19050
p1897
I19050
sV19051
p1898
I19051
sV10030
p1899
I10030
sV20100
p1900
I20100
sV10032
p1901
I10032
sV19022
p1902
I19062
sV05016
p1903
I5016
sV21022
p1904
I21022
sV21023
p1905
I21023
sV21020
p1906
I21020
sV21021
p1907
I21021
sV21026
p1908
I21026
sV21027
p1909
I21027
sV21024
p1910
I21024
sV21025
p1911
I21025
sV21028
p1912
I21028
sV21029
p1913
I21029
sV25018
p1914
I25018
sV25013
p1915
I25013
sV25012
p1916
I25012
sV25011
p1917
I25011
sV25010
p1918
I25010
sV25017
p1919
I25017
sV25016
p1920
I25016
sV25015
p1921
I25015
sV25014
p1922
I25014
sV20106
p1923
I20106
sV21158
p1924
I21158
sV21159
p1925
I21159
sV21156
p1926
I21156
sV21157
p1927
I21157
sV21154
p1928
I21154
sV21155
p1929
I21155
sV21152
p1930
I21152
sV21153
p1931
I21153
sV21150
p1932
I21150
sV21151
p1933
I21151
sV20107
p1934
I20107
sV20179
p1935
I20179
sV20178
p1936
I20178
sV20177
p1937
I20177
sV20176
p1938
I20176
sV20175
p1939
I20175
sV20174
p1940
I20174
sV20173
p1941
I20173
sV20172
p1942
I20172
sV20171
p1943
I20171
sV20170
p1944
I20170
sV17009
p1945
I17009
sV17008
p1946
I17008
sV30148
p1947
I30148
sV17001
p1948
I17001
sV17003
p1949
I17003
sV17002
p1950
I17002
sV17005
p1951
I17005
sV17004
p1952
I17004
sV17007
p1953
I17007
sV17006
p1954
I17006
sV14101
p1955
I14101
sV14100
p1956
I14100
sV14103
p1957
I14103
sV14102
p1958
I14102
sV14105
p1959
I14105
sV14104
p1960
I14104
sV14107
p1961
I14107
sV14106
p1962
I14106
sV14109
p1963
I14109
sV14108
p1964
I14108
sV24050
p1965
I24050
sV20518
p1966
I20518
sV24052
p1967
I24052
sV24053
p1968
I24053
sV24054
p1969
I24054
sV24055
p1970
I24055
sV24056
p1971
I24056
sV24057
p1972
I24057
sV24058
p1973
I24058
sV20510
p1974
I20510
sV20513
p1975
I20513
sV20512
p1976
I20512
sV20515
p1977
I20515
sV20514
p1978
I20514
sV20517
p1979
I20517
sV20516
p1980
I20516
sV01011
p1981
I1011
sV01010
p1982
I1010
sV09006
p1983
I9006
sV09007
p1984
I9007
sV08029
p1985
I8029
sV08028
p1986
I8028
sV09002
p1987
I9002
sV09003
p1988
I9003
sV08023
p1989
I8023
sV08022
p1990
I8022
sV08021
p1991
I8021
sV08020
p1992
I8020
sV08027
p1993
I8027
sV08026
p1994
I8026
sV08025
p1995
I8025
sV08024
p1996
I8024
sV20357
p1997
I20357
sV20356
p1998
I20356
sV20355
p1999
I20355
sV20354
p2000
I20354
sV20353
p2001
I20353
sV20352
p2002
I20352
sV20351
p2003
I20351
sV20350
p2004
I20350
sV20429
p2005
I20429
sV20428
p2006
I20428
sV20359
p2007
I20359
sV20358
p2008
I20358
sV20195
p2009
I20195
sV20194
p2010
I20194
sV20197
p2011
I20197
sV20196
p2012
I20196
sV20191
p2013
I20191
sV20190
p2014
I20190
sV20193
p2015
I20193
sV20192
p2016
I20192
sV20199
p2017
I20199
sV20198
p2018
I20198
sV13023
p2019
I13023
sV30119
p2020
I30119
sV13021
p2021
I13021
sV13020
p2022
I13020
sV13027
p2023
I13027
sV13026
p2024
I13026
sV13025
p2025
I13025
sV13024
p2026
I13024
sV30110
p2027
I30110
sV30111
p2028
I30111
sV30112
p2029
I30112
sV30113
p2030
I30113
sV30114
p2031
I30114
sV30115
p2032
I30115
sV30116
p2033
I30116
sV30117
p2034
I30117
sV20101
p2035
I20101
sV20038
p2036
I20038
sV20223
p2037
I20223
sV20222
p2038
I20222
sV20221
p2039
I20221
sV20220
p2040
I20220
sV20227
p2041
I20227
sV20226
p2042
I20226
sV28009
p2043
I28009
sV28008
p2044
I28008
sV28007
p2045
I28007
sV28006
p2046
I28006
sV20229
p2047
I20229
sV28004
p2048
I28004
sV28003
p2049
I28003
sV28002
p2050
I28002
sV28001
p2051
I28001
sV30204
p2052
I30204
sV30205
p2053
I30205
sV29028
p2054
I29028
sV30207
p2055
I30207
sV30200
p2056
I30200
sV30201
p2057
I30201
sV30202
p2058
I30202
sV30203
p2059
I30203
sV29022
p2060
I29022
sV29023
p2061
I29023
sV29020
p2062
I29020
sV29021
p2063
I29021
sV30208
p2064
I30208
sV30209
p2065
I30209
sV29024
p2066
I29024
sV29025
p2067
I29025
sV20031
p2068
I20031
sV30060
p2069
I30060
sV30061
p2070
I30061
sV30062
p2071
I30062
sV30063
p2072
I30063
sV30064
p2073
I30064
sV30065
p2074
I30065
sV30066
p2075
I30066
sV30067
p2076
I30067
sV30068
p2077
I30068
sV30069
p2078
I30069
sV13041
p2079
I13041
sV13040
p2080
I13040
sV16059
p2081
I16059
sV16058
p2082
I16058
sV16055
p2083
I16055
sV16054
p2084
I16054
sV16057
p2085
I16057
sV16056
p2086
I16056
sV16051
p2087
I16051
sV16050
p2088
I16050
sV16053
p2089
I16053
sV16052
p2090
I16052
sV07019
p2091
I7019
sV03003
p2092
I3003
sV25004
p2093
I25004
sV25005
p2094
I25005
sV25006
p2095
I25006
sV25007
p2096
I25007
sV25001
p2097
I25001
sV21019
p2098
I21019
sV21018
p2099
I21018
sV21017
p2100
I21017
sV21016
p2101
I21016
sV21015
p2102
I21015
sV21014
p2103
I21014
sV25008
p2104
I25008
sV25009
p2105
I25009
sV21011
p2106
I21011
sV21010
p2107
I21010
sV14082
p2108
I14082
sV20421
p2109
I20421
sV32035
p2110
I32035
sV32034
p2111
I32034
sV21169
p2112
I21169
sV21168
p2113
I21168
sV32031
p2114
I32031
sV32030
p2115
I32030
sV32033
p2116
I32033
sV32032
p2117
I32032
sV21163
p2118
I21163
sV21162
p2119
I21162
sV21161
p2120
I21161
sV21160
p2121
I21160
sV32039
p2122
I32039
sV21166
p2123
I21166
sV21165
p2124
I21165
sV21164
p2125
I21164
sV20168
p2126
I20168
sV20169
p2127
I20169
sV29001
p2128
I29001
sV20160
p2129
I20160
sV20161
p2130
I20161
sV20162
p2131
I20162
sV20163
p2132
I20163
sV20164
p2133
I20164
sV20165
p2134
I20165
sV20166
p2135
I20166
sV20167
p2136
I20167
sV17018
p2137
I17018
sV17019
p2138
I17019
sV17012
p2139
I17012
sV17013
p2140
I17013
sV17010
p2141
I17010
sV17011
p2142
I17011
sV17016
p2143
I17016
sV17017
p2144
I17017
sV17014
p2145
I17014
sV17015
p2146
I17015
sV26005
p2147
I26005
sV26004
p2148
I26004
sV26007
p2149
I26007
sV26006
p2150
I26006
sV26001
p2151
I26001
sV26003
p2152
I26003
sV26002
p2153
I26002
sV26009
p2154
I26009
sV26008
p2155
I26008
sV14112
p2156
I14112
sV14113
p2157
I14113
sV14110
p2158
I14110
sV14111
p2159
I14111
sV14116
p2160
I14116
sV14117
p2161
I14117
sV14114
p2162
I14114
sV14115
p2163
I14115
sV14118
p2164
I14118
sV14119
p2165
I14119
sV20508
p2166
I20508
sV20509
p2167
I20509
sV20502
p2168
I20502
sV20503
p2169
I20503
sV20500
p2170
I20500
sV20501
p2171
I20501
sV20506
p2172
I20506
sV20507
p2173
I20507
sV20504
p2174
I20504
sV20505
p2175
I20505
sV20011
p2176
I20011
sV01008
p2177
I1008
sV01009
p2178
I1009
sV01006
p2179
I1006
sV01007
p2180
I1007
sV01004
p2181
I1004
sV01005
p2182
I1005
sV01002
p2183
I1002
sV01003
p2184
I1003
sV01001
p2185
I1001
sV20012
p2186
I20012
sV20340
p2187
I20340
sV20341
p2188
I20341
sV20342
p2189
I20342
sV20435
p2190
I20435
sV20344
p2191
I20344
sV20345
p2192
I20345
sV20346
p2193
I20346
sV20347
p2194
I20347
sV20348
p2195
I20348
sV20349
p2196
I20349
sV20013
p2197
I20013
sV20438
p2198
I20438
sV20439
p2199
I20439
sV20186
p2200
I20186
sV20187
p2201
I20187
sV20184
p2202
I20184
sV20185
p2203
I20185
sV20182
p2204
I20182
sV20183
p2205
I20183
sV20180
p2206
I20180
sV20181
p2207
I20181
sV20188
p2208
I20188
sV20189
p2209
I20189
sV13038
p2210
I13038
sV13039
p2211
I13039
sV13034
p2212
I13034
sV13035
p2213
I13035
sV13036
p2214
I13036
sV13037
p2215
I13037
sV13030
p2216
I13030
sV13031
p2217
I13031
sV13032
p2218
I13032
sV13033
p2219
I13033
sV15089
p2220
I15089
sV15088
p2221
I15088
sV15087
p2222
I15087
sV15086
p2223
I15086
sV15085
p2224
I15085
sV15084
p2225
I15084
sV15083
p2226
I15083
sV15082
p2227
I15082
sV15081
p2228
I15081
sV15080
p2229
I15080
sV28018
p2230
I28018
sV28019
p2231
I28019
sV29015
p2232
I29015
sV29014
p2233
I29014
sV29013
p2234
I29013
sV29012
p2235
I29012
sV29011
p2236
I29011
sV29010
p2237
I29010
sV28010
p2238
I28010
sV28011
p2239
I28011
sV28012
p2240
I28012
sV28013
p2241
I28013
sV28014
p2242
I28014
sV28015
p2243
I28015
sV20232
p2244
I20232
sV20233
p2245
I20233
sV08034
p2246
I8034
sV08035
p2247
I8035
sV08036
p2248
I8036
sV08037
p2249
I8037
sV08030
p2250
I8030
sV08031
p2251
I8031
sV08032
p2252
I8032
sV08033
p2253
I8033
sV08038
p2254
I8038
sV08039
p2255
I8039
sV07097
p2256
I7097
sV07096
p2257
I7096
sV07094
p2258
I7094
sV07093
p2259
I7093
sV07092
p2260
I7092
sV07091
p2261
I7091
sV07090
p2262
I7090
sV07099
p2263
I7099
sV07098
p2264
I7098
sV30099
p2265
I30099
sV30098
p2266
I30098
sV30095
p2267
I30095
sV30094
p2268
I30094
sV30097
p2269
I30097
sV30096
p2270
I30096
sV30091
p2271
I30091
sV30090
p2272
I30090
sV30093
p2273
I30093
sV30092
p2274
I30092
sV15065
p2275
I15065
sV15064
p2276
I15064
sV15067
p2277
I15067
sV15066
p2278
I15066
sV15061
p2279
I15061
sV15060
p2280
I15060
sV15063
p2281
I15063
sV15062
p2282
I15062
sV15069
p2283
I15069
sV15068
p2284
I15068
sV16048
p2285
I16048
sV16049
p2286
I16049
sV16046
p2287
I16046
sV16047
p2288
I16047
sV16044
p2289
I16044
sV16045
p2290
I16045
sV16042
p2291
I16042
sV16043
p2292
I16043
sV16040
p2293
I16040
sV16041
p2294
I16041
sV20519
p2295
I20519
sV24051
p2296
I24051
sV21008
p2297
I21008
sV21009
p2298
I21009
sV21001
p2299
I21001
sV21002
p2300
I21002
sV21003
p2301
I21003
sV21004
p2302
I21004
sV21005
p2303
I21005
sV21006
p2304
I21006
sV21007
p2305
I21007
sV20511
p2306
I20511
sV21174
p2307
I21174
sV21175
p2308
I21175
sV21176
p2309
I21176
sV21177
p2310
I21177
sV21170
p2311
I21170
sV21171
p2312
I21171
sV21172
p2313
I21172
sV21173
p2314
I21173
sV21178
p2315
I21178
sV21179
p2316
I21179
sV32026
p2317
I32026
sV32027
p2318
I32027
sV32024
p2319
I32024
sV32025
p2320
I32025
sV32022
p2321
I32022
sV32023
p2322
I32023
sV32020
p2323
I32020
sV32021
p2324
I32021
sV32028
p2325
I32028
sV32029
p2326
I32029
sV17027
p2327
I17027
sV17026
p2328
I17026
sV17025
p2329
I17025
sV17024
p2330
I17036
sV17023
p2331
I17023
sV17022
p2332
I17022
sV17021
p2333
I17021
sV17020
p2334
I17020
sV17029
p2335
I17029
sV17028
p2336
I17028
sV20201
p2337
I20201
sV26016
p2338
I26016
sV26017
p2339
I26017
sV26014
p2340
I26014
sV26015
p2341
I26015
sV26012
p2342
I26012
sV26013
p2343
I26013
sV26010
p2344
I26010
sV26011
p2345
I26011
sV05019
p2346
I5019
sV05018
p2347
I5018
sV26018
p2348
I26018
sV26019
p2349
I26019
sV20537
p2350
I20537
sV20536
p2351
I20536
sV20535
p2352
I20535
sV20534
p2353
I20534
sV20533
p2354
I20533
sV20532
p2355
I20532
sV20531
p2356
I20531
sV20530
p2357
I20530
sV14125
p2358
I14125
sV14124
p2359
I14124
sV14123
p2360
I14123
sV14122
p2361
I14122
sV20539
p2362
I20539
sV20538
p2363
I20538
sV09004
p2364
I9004
sV20403
p2365
I20403
sV20402
p2366
I20402
sV20401
p2367
I20401
sV20400
p2368
I20400
sV20407
p2369
I20407
sV20406
p2370
I20406
sV20405
p2371
I20405
sV20404
p2372
I20404
sV20409
p2373
I20409
sV20408
p2374
I20408
sV13049
p2375
I13049
sV13048
p2376
I13048
sV20102
p2377
I20102
sV30206
p2378
I30206
sV13043
p2379
I13043
sV13042
p2380
I13042
sV13045
p2381
I13045
sV13044
p2382
I13044
sV13047
p2383
I13047
sV13046
p2384
I13046
sV15098
p2385
I15098
sV15099
p2386
I15099
sV15090
p2387
I15090
sV15091
p2388
I15091
sV15092
p2389
I15092
sV15093
p2390
I15093
sV15094
p2391
I15094
sV15095
p2392
I15095
sV15096
p2393
I15096
sV15097
p2394
I15097
sV09008
p2395
I9008
sV09009
p2396
I9009
sV20249
p2397
I20249
sV20248
p2398
I20248
sV29002
p2399
I29002
sV29003
p2400
I29003
sV29004
p2401
I29061
sV29005
p2402
I29005
sV29006
p2403
I29006
sV29007
p2404
I29007
sV29008
p2405
I29008
sV20240
p2406
I20240
sV20243
p2407
I20243
sV20242
p2408
I20242
sV20245
p2409
I20245
sV20244
p2410
I20244
sV20247
p2411
I20247
sV20246
p2412
I20246
sV08041
p2413
I8041
sV08040
p2414
I8040
sV08043
p2415
I8043
sV08042
p2416
I8042
sV08045
p2417
I8045
sV08044
p2418
I8044
sV08047
p2419
I8047
sV08046
p2420
I8046
sV08049
p2421
I8049
sV08048
p2422
I8048
sV20420
p2423
I20420
sV20423
p2424
I20423
sV20422
p2425
I20422
sV07080
p2426
I7080
sV07081
p2427
I7081
sV07082
p2428
I7082
sV07083
p2429
I7083
sV07084
p2430
I7084
sV07085
p2431
I7085
sV07086
p2432
I7086
sV07087
p2433
I7087
sV07088
p2434
I7088
sV07089
p2435
I7089
sV20001
p2436
I20001
sV14099
p2437
I14099
sV30088
p2438
I30088
sV30089
p2439
I30089
sV30086
p2440
I30086
sV30087
p2441
I30087
sV30084
p2442
I30084
sV30085
p2443
I30085
sV30082
p2444
I30082
sV30083
p2445
I30083
sV30080
p2446
I30080
sV30081
p2447
I30081
sV14098
p2448
I14127
sV20058
p2449
I20058
sV20050
p2450
I20050
sV20059
p2451
I20059
sV15076
p2452
I15076
sV15077
p2453
I15077
sV15074
p2454
I15074
sV15075
p2455
I15075
sV15072
p2456
I15072
sV15073
p2457
I15073
sV15070
p2458
I15070
sV15071
p2459
I15071
sV15078
p2460
I15078
sV15079
p2461
I15079
s.