(dp1
V16079
p2
I16079
sV16078
p3
I16078
sV16073
p4
I16073
sV16072
p5
I16072
sV16071
p6
I16071
sV16070
p7
I16070
sV16077
p8
I16077
sV16076
p9
I16076
sV16075
p10
I16075
sV16074
p11
I16074
sV13023
p12
I13023
sV30119
p13
I30119
sV22009
p14
I22009
sV22008
p15
I22008
sV22001
p16
I22001
sV22003
p17
I22003
sV22002
p18
I22002
sV22005
p19
I22005
sV22004
p20
I22004
sV22007
p21
I22007
sV22006
p22
I22006
sV08019
p23
I8019
sV30113
p24
I30113
sV21101
p25
I21101
sV21100
p26
I21100
sV21103
p27
I21103
sV21102
p28
I21102
sV21105
p29
I21105
sV21104
p30
I21104
sV21107
p31
I21107
sV21106
p32
I21106
sV21109
p33
I21109
sV21108
p34
I21108
sV32013
p35
I32013
sV32012
p36
I32012
sV32011
p37
I32011
sV32010
p38
I32010
sV32017
p39
I32017
sV32016
p40
I32016
sV32015
p41
I32015
sV32014
p42
I32014
sV32019
p43
I32019
sV32018
p44
I32018
sV05028
p45
I5028
sV12019
p46
I12019
sV12018
p47
I12018
sV05029
p48
I5029
sV12015
p49
I12015
sV12014
p50
I12014
sV12017
p51
I12017
sV12016
p52
I12016
sV12011
p53
I12011
sV12010
p54
I12010
sV12013
p55
I12013
sV12012
p56
I12012
sV17030
p57
I17030
sV17031
p58
I17035
sV17032
p59
I32068
sV17033
p60
I17033
sV05020
p61
I5020
sV05021
p62
I5021
sV05022
p63
I5022
sV05023
p64
I5023
sV05024
p65
I5024
sV05025
p66
I5025
sV26023
p67
I26023
sV26022
p68
I26022
sV26021
p69
I26021
sV26020
p70
I26020
sV26027
p71
I26027
sV26026
p72
I26026
sV26025
p73
I26025
sV26024
p74
I26024
sV26029
p75
I26029
sV26028
p76
I26028
sV20520
p77
I20520
sV20521
p78
I20521
sV20522
p79
I20522
sV20523
p80
I20523
sV20524
p81
I20524
sV20525
p82
I20525
sV20526
p83
I20526
sV20527
p84
I20527
sV20528
p85
I20528
sV20529
p86
I20529
sV20153
p87
I20153
sV10007
p88
I10007
sV20154
p89
I20154
sV10002
p90
I10002
sV20156
p91
I20156
sV20159
p92
I20159
sV20158
p93
I20158
sV10008
p94
I10008
sV10009
p95
I10009
sV20418
p96
I20418
sV20419
p97
I20419
sV20414
p98
I20414
sV20415
p99
I20415
sV20416
p100
I20416
sV20417
p101
I20417
sV20410
p102
I20410
sV20411
p103
I20411
sV20412
p104
I20412
sV20413
p105
I20413
sV28009
p106
I28009
sV28008
p107
I28008
sV13058
p108
I13058
sV13059
p109
I13059
sV13052
p110
I13052
sV13053
p111
I13053
sV13050
p112
I13050
sV13051
p113
I13051
sV13056
p114
I13056
sV13057
p115
I13057
sV13054
p116
I13054
sV13055
p117
I13055
sV28004
p118
I28004
sV20102
p119
I20102
sV20258
p120
I20258
sV20259
p121
I20259
sV20252
p122
I20252
sV20253
p123
I20253
sV20250
p124
I20250
sV20251
p125
I20251
sV20256
p126
I20256
sV20257
p127
I20257
sV20254
p128
I20254
sV20255
p129
I20255
sV08052
p130
I8052
sV08053
p131
I8053
sV08050
p132
I8050
sV08051
p133
I8051
sV08056
p134
I8056
sV08057
p135
I8057
sV08054
p136
I8054
sV08055
p137
I8055
sV08058
p138
I8058
sV08059
p139
I8059
sV07079
p140
I7079
sV07078
p141
I7078
sV07075
p142
I7075
sV07074
p143
I7074
sV07077
p144
I7077
sV07076
p145
I7076
sV07071
p146
I7071
sV07070
p147
I7070
sV07073
p148
I7073
sV07072
p149
I7072
sV30208
p150
I30208
sV30209
p151
I30209
sV15043
p152
I15043
sV15042
p153
I15042
sV15041
p154
I15041
sV15040
p155
I15040
sV15047
p156
I15047
sV15046
p157
I15046
sV15045
p158
I15045
sV15044
p159
I15044
sV15049
p160
I15049
sV30012
p161
I30012
sV20541
p162
I20541
sV30019
p163
I30019
sV30018
p164
I30018
sV22018
p165
I22018
sV22012
p166
I22012
sV22013
p167
I22013
sV22010
p168
I22010
sV22011
p169
I22011
sV22016
p170
I22016
sV22017
p171
I22017
sV22014
p172
I22014
sV22015
p173
I22015
sV02003
p174
I2003
sV02002
p175
I2002
sV02001
p176
I2001
sV02005
p177
I2005
sV02004
p178
I2004
sV16064
p179
I16064
sV16065
p180
I16065
sV16066
p181
I16066
sV16067
p182
I16067
sV16060
p183
I16060
sV16061
p184
I16061
sV16062
p185
I16062
sV16063
p186
I16063
sV16068
p187
I16068
sV16069
p188
I16069
sV21112
p189
I21112
sV21113
p190
I21113
sV21110
p191
I21110
sV21111
p192
I21111
sV21116
p193
I21116
sV21117
p194
I21117
sV21114
p195
I21114
sV21115
p196
I21115
sV21118
p197
I21118
sV21119
p198
I21119
sV32008
p199
I32008
sV32009
p200
I32009
sV32004
p201
I32004
sV32005
p202
I32005
sV32006
p203
I32006
sV32007
p204
I32007
sV32001
p205
I32001
sV32002
p206
I32002
sV32003
p207
I32003
sV12008
p208
I12008
sV12009
p209
I12009
sV12006
p210
I12006
sV12007
p211
I12007
sV12004
p212
I12004
sV12005
p213
I12005
sV12002
p214
I12002
sV12003
p215
I12003
sV12001
p216
I12001
sV14083
p217
I14083
sV14088
p218
I14088
sV14089
p219
I14089
sV26038
p220
I26038
sV26039
p221
I26039
sV05038
p222
I5038
sV26034
p223
I26034
sV26035
p224
I26035
sV26036
p225
I26036
sV26037
p226
I26037
sV26030
p227
I26030
sV26031
p228
I26031
sV05031
p229
I5031
sV26033
p230
I26033
sV20089
p231
I20089
sV20088
p232
I20088
sV20087
p233
I20087
sV20086
p234
I20086
sV20085
p235
I20085
sV20084
p236
I20084
sV20083
p237
I20083
sV20082
p238
I20082
sV20081
p239
I20081
sV20080
p240
I20080
sV20248
p241
I20248
sV20469
p242
I20469
sV20468
p243
I20468
sV20399
p244
I20399
sV20398
p245
I20398
sV14093
p246
I14093
sV14092
p247
I14092
sV14091
p248
I14091
sV14090
p249
I14090
sV20393
p250
I20393
sV20392
p251
I20392
sV20391
p252
I20391
sV20390
p253
I20390
sV20397
p254
I20397
sV20396
p255
I20396
sV20395
p256
I20395
sV20394
p257
I20394
sV13067
p258
I13067
sV13066
p259
I13066
sV13065
p260
I13065
sV13064
p261
I13064
sV13063
p262
I13063
sV13062
p263
I13062
sV13061
p264
I13061
sV13060
p265
I13060
sV13069
p266
I13069
sV13068
p267
I13068
sV20267
p268
I20267
sV20266
p269
I20266
sV20265
p270
I20265
sV20264
p271
I20264
sV20263
p272
I20263
sV20262
p273
I20262
sV20261
p274
I20261
sV20260
p275
I20260
sV20269
p276
I20269
sV20268
p277
I20268
sV20065
p278
I20065
sV20064
p279
I20064
sV20067
p280
I20067
sV20066
p281
I20066
sV20061
p282
I20061
sV20060
p283
I20060
sV20063
p284
I20063
sV20062
p285
I20062
sV20069
p286
I20069
sV20068
p287
I20068
sV08067
p288
I8067
sV08066
p289
I8066
sV08065
p290
I8065
sV08064
p291
I8064
sV08063
p292
I8068
sV08062
p293
I8062
sV08061
p294
I8061
sV08060
p295
I8060
sV07068
p296
I7068
sV07069
p297
I7069
sV07066
p298
I7066
sV07067
p299
I7067
sV07064
p300
I7064
sV07065
p301
I7065
sV07062
p302
I7062
sV07063
p303
I7063
sV07060
p304
I7060
sV07061
p305
I7061
sV08001
p306
I8001
sV20240
p307
I20240
sV11025
p308
I11025
sV11024
p309
I11024
sV11027
p310
I11027
sV11026
p311
I11026
sV15058
p312
I15058
sV15059
p313
I15059
sV11023
p314
I11023
sV11022
p315
I11022
sV15054
p316
I15054
sV15055
p317
I15055
sV15056
p318
I15056
sV15057
p319
I15057
sV15050
p320
I15050
sV15051
p321
I15051
sV15052
p322
I15052
sV15053
p323
I15053
sV06007
p324
I6007
sV06006
p325
I6006
sV06005
p326
I6005
sV06004
p327
I6004
sV06003
p328
I6003
sV06002
p329
I6002
sV06001
p330
I6001
sV06009
p331
I6009
sV06008
p332
I6008
sV16011
p333
I16011
sV16010
p334
I16010
sV16013
p335
I16013
sV16012
p336
I16012
sV16015
p337
I16015
sV16014
p338
I16014
sV16017
p339
I16017
sV16016
p340
I16016
sV16019
p341
I16019
sV16018
p342
I16018
sV21129
p343
I21129
sV21128
p344
I21128
sV21127
p345
I21127
sV21126
p346
I21126
sV21125
p347
I21125
sV21124
p348
I21124
sV21123
p349
I21123
sV21122
p350
I21122
sV21121
p351
I21121
sV21120
p352
I21120
sV30132
p353
I30132
sV12039
p354
I12039
sV12038
p355
I12082
sV30133
p356
I30133
sV12033
p357
I12033
sV12032
p358
I12032
sV12031
p359
I12031
sV12030
p360
I12030
sV12037
p361
I12037
sV12036
p362
I12036
sV12035
p363
I12035
sV12034
p364
I12034
sV30131
p365
I30131
sV30136
p366
I30136
sV13003
p367
I13003
sV30135
p368
I30135
sV26049
p369
I26049
sV26048
p370
I26048
sV26041
p371
I26041
sV26040
p372
I26040
sV26043
p373
I26043
sV26042
p374
I26042
sV26045
p375
I26045
sV26044
p376
I26044
sV26047
p377
I26047
sV26046
p378
I26046
sV20098
p379
I20098
sV20099
p380
I20099
sV20090
p381
I20090
sV20091
p382
I20091
sV20092
p383
I20092
sV20093
p384
I20093
sV20094
p385
I20094
sV20095
p386
I20095
sV20096
p387
I20096
sV20097
p388
I20097
sV07111
p389
I7111
sV15027
p390
I15027
sV05002
p391
I5002
sV05003
p392
I5003
sV05001
p393
I5001
sV05006
p394
I5006
sV15026
p395
I15026
sV05007
p396
I5040
sV20384
p397
I20384
sV20385
p398
I20385
sV20386
p399
I20386
sV20387
p400
I20387
sV20380
p401
I20380
sV20381
p402
I20381
sV20382
p403
I20382
sV20383
p404
I20383
sV05005
p405
I5005
sV20388
p406
I20388
sV20389
p407
I20389
sV14080
p408
I14080
sV14081
p409
I14081
sV20478
p410
I20478
sV20479
p411
I20479
sV14084
p412
I14084
sV14085
p413
I14085
sV14086
p414
I14086
sV14087
p415
I14087
sV20472
p416
I20472
sV20473
p417
I20473
sV20470
p418
I20470
sV20471
p419
I20471
sV20476
p420
I20476
sV20477
p421
I20477
sV20474
p422
I20474
sV20475
p423
I20475
sV13070
p424
I13070
sV13071
p425
I13071
sV13072
p426
I13072
sV13073
p427
I13073
sV13074
p428
I13074
sV13075
p429
I13075
sV13076
p430
I13076
sV13077
p431
I13077
sV13078
p432
I13078
sV13079
p433
I13079
sV30187
p434
I30187
sV30186
p435
I30186
sV30185
p436
I30185
sV30184
p437
I30184
sV30183
p438
I30183
sV30182
p439
I30182
sV30181
p440
I30181
sV30180
p441
I30180
sV14033
p442
I14033
sV30189
p443
I30213
sV30188
p444
I30188
sV20270
p445
I20270
sV20271
p446
I20271
sV20272
p447
I20272
sV20273
p448
I20273
sV20274
p449
I20274
sV20275
p450
I20275
sV20276
p451
I20276
sV20277
p452
I20277
sV20278
p453
I20278
sV20279
p454
I20279
sV07051
p455
I7051
sV20076
p456
I20076
sV20077
p457
I20077
sV20074
p458
I20074
sV20075
p459
I20075
sV20072
p460
I20072
sV20073
p461
I20073
sV20070
p462
I20070
sV20071
p463
I20071
sV07057
p464
I7057
sV20078
p465
I20078
sV20079
p466
I20079
sV14039
p467
I14039
sV07055
p468
I7055
sV14038
p469
I14038
sV07054
p470
I7054
sV28021
p471
I28021
sV28020
p472
I28020
sV28023
p473
I28023
sV16020
p474
I16020
sV07059
p475
I7059
sV07058
p476
I7058
sV15119
p477
I15119
sV15118
p478
I15118
sV19037
p479
I19037
sV15115
p480
I15115
sV15114
p481
I15114
sV15117
p482
I15117
sV15116
p483
I15116
sV15111
p484
I15111
sV15110
p485
I15110
sV15113
p486
I15113
sV15112
p487
I15112
sV16023
p488
I16023
sV28027
p489
I28027
sV16024
p490
I16024
sV20202
p491
I20202
sV16025
p492
I16025
sV16026
p493
I16026
sV16027
p494
I16027
sV20133
p495
I20133
sV20132
p496
I20132
sV20131
p497
I20131
sV15029
p498
I15029
sV15028
p499
I15028
sV11034
p500
I11034
sV20130
p501
I20130
sV11032
p502
I11032
sV11033
p503
I11033
sV11030
p504
I11030
sV11031
p505
I11031
sV15021
p506
I15021
sV15020
p507
I15020
sV15023
p508
I15023
sV15022
p509
I15022
sV15025
p510
I15025
sV15024
p511
I15024
sV11038
p512
I11038
sV11039
p513
I11039
sV31104
p514
I31104
sV31105
p515
I31105
sV31106
p516
I31106
sV31100
p517
I31100
sV31101
p518
I31101
sV31102
p519
I31102
sV31103
p520
I31103
sV10021
p521
I10021
sV25008
p522
I25008
sV25009
p523
I25009
sV21010
p524
I21010
sV27015
p525
I27015
sV27014
p526
I27014
sV27017
p527
I27017
sV27016
p528
I27016
sV27011
p529
I27011
sV27010
p530
I27010
sV27013
p531
I27013
sV27012
p532
I27012
sV06010
p533
I6010
sV29007
p534
I29007
sV16002
p535
I16002
sV16003
p536
I16003
sV16001
p537
I16001
sV16006
p538
I16006
sV16007
p539
I16007
sV16004
p540
I16004
sV16005
p541
I16005
sV16008
p542
I16008
sV16009
p543
I16009
sV21138
p544
I21138
sV21139
p545
I21139
sV21130
p546
I21130
sV21131
p547
I21131
sV21132
p548
I21132
sV21133
p549
I21133
sV21134
p550
I21134
sV21135
p551
I21135
sV21136
p552
I21136
sV21137
p553
I21137
sV12024
p554
I12024
sV12025
p555
I12025
sV12026
p556
I12026
sV12027
p557
I12027
sV12020
p558
I12020
sV12021
p559
I12021
sV12022
p560
I12022
sV12023
p561
I12023
sV12028
p562
I12028
sV12029
p563
I12029
sV20233
p564
I20233
sV26058
p565
I26058
sV26059
p566
I26059
sV26052
p567
I26052
sV26053
p568
I26053
sV26050
p569
I26050
sV26051
p570
I26051
sV26056
p571
I26056
sV26057
p572
I26057
sV26054
p573
I26054
sV26055
p574
I26055
sV11036
p575
I11036
sV11037
p576
I32063
sV11035
p577
I11035
sV20555
p578
I20555
sV20554
p579
I20554
sV20557
p580
I20557
sV20556
p581
I20556
sV20003
p582
I20003
sV20002
p583
I20002
sV20447
p584
I20447
sV20446
p585
I20446
sV20445
p586
I20445
sV20444
p587
I20444
sV20443
p588
I20443
sV20442
p589
I20442
sV20441
p590
I20441
sV20440
p591
I20440
sV20449
p592
I20449
sV20448
p593
I20448
sV14079
p594
I14079
sV14078
p595
I14078
sV14075
p596
I14075
sV14074
p597
I14074
sV14077
p598
I14126
sV14076
p599
I14076
sV14071
p600
I14071
sV14070
p601
I14070
sV14073
p602
I14073
sV14072
p603
I14072
sV13084
p604
I13084
sV13081
p605
I13081
sV13080
p606
I13080
sV13083
p607
I13083
sV13082
p608
I13082
sV30190
p609
I30190
sV30191
p610
I30191
sV30192
p611
I30192
sV30193
p612
I30193
sV30194
p613
I30194
sV30195
p614
I30195
sV30196
p615
I30196
sV30197
p616
I30197
sV30198
p617
I30198
sV30199
p618
I30199
sV20289
p619
I20289
sV20288
p620
I20288
sV20285
p621
I20285
sV20284
p622
I20284
sV20287
p623
I20287
sV20286
p624
I20286
sV20281
p625
I20281
sV20280
p626
I20280
sV20283
p627
I20283
sV20282
p628
I20282
sV20043
p629
I20573
sV20042
p630
I20042
sV20041
p631
I20041
sV20040
p632
I20040
sV20047
p633
I20047
sV20046
p634
I20046
sV20045
p635
I20045
sV20044
p636
I20044
sV20049
p637
I20049
sV20048
p638
I20048
sV21169
p639
I21169
sV21168
p640
I21168
sV07110
p641
I7110
sV07044
p642
I7044
sV07045
p643
I7045
sV07046
p644
I7046
sV07047
p645
I7047
sV07040
p646
I7040
sV07041
p647
I7041
sV07042
p648
I7042
sV07043
p649
I7043
sV07048
p650
I7048
sV07049
p651
I7049
sV15108
p652
I15108
sV15109
p653
I15109
sV15106
p654
I15106
sV15107
p655
I15107
sV15104
p656
I15104
sV15105
p657
I15105
sV15102
p658
I15102
sV15103
p659
I15103
sV15100
p660
I15100
sV15101
p661
I15101
sV32039
p662
I32039
sV21166
p663
I21166
sV31009
p664
I31009
sV31008
p665
I31008
sV31005
p666
I31005
sV31004
p667
I31004
sV31007
p668
I31007
sV31006
p669
I31006
sV31001
p670
I31001
sV31003
p671
I31003
sV31002
p672
I31002
sV11003
p673
I11047
sV11002
p674
I11002
sV15038
p675
I15038
sV15039
p676
I15039
sV11007
p677
I11007
sV11006
p678
I11006
sV11005
p679
I11005
sV11004
p680
I11004
sV15032
p681
I15032
sV15033
p682
I15033
sV15030
p683
I15030
sV11008
p684
I11008
sV15036
p685
I15036
sV15037
p686
I15037
sV15034
p687
I15034
sV15035
p688
I15035
sV20460
p689
I20460
sV27008
p690
I27008
sV27009
p691
I27009
sV27006
p692
I27006
sV27007
p693
I27007
sV27004
p694
I27004
sV27005
p695
I27005
sV27002
p696
I27002
sV27003
p697
I27003
sV27001
p698
I27001
sV16109
p699
I16109
sV16108
p700
I16108
sV29012
p701
I29012
sV16103
p702
I16103
sV16102
p703
I16102
sV16101
p704
I16101
sV16100
p705
I16100
sV16107
p706
I16107
sV16106
p707
I16106
sV16105
p708
I16105
sV16104
p709
I16104
sV07118
p710
I7118
sV19029
p711
I19029
sV19028
p712
I19028
sV16039
p713
I16039
sV16038
p714
I16038
sV16037
p715
I16037
sV16036
p716
I16036
sV19027
p717
I19027
sV16034
p718
I16034
sV16033
p719
I16033
sV16032
p720
I16032
sV16031
p721
I16031
sV16030
p722
I16030
sV32057
p723
I32057
sV32056
p724
I32056
sV32055
p725
I32055
sV32054
p726
I32054
sV32053
p727
I32053
sV32052
p728
I32052
sV32051
p729
I32051
sV32050
p730
I32050
sV32058
p731
I32058
sV12051
p732
I12051
sV12050
p733
I12050
sV12053
p734
I12053
sV12052
p735
I12052
sV12055
p736
I12055
sV12054
p737
I12054
sV12057
p738
I12057
sV12056
p739
I12056
sV12059
p740
I12059
sV12058
p741
I12058
sV21097
p742
I21097
sV21096
p743
I21096
sV21095
p744
I21095
sV21094
p745
I21094
sV21093
p746
I21093
sV21092
p747
I21092
sV21091
p748
I21091
sV21090
p749
I21090
sV14027
p750
I14027
sV21099
p751
I21099
sV21098
p752
I21098
sV26067
p753
I26067
sV26066
p754
I26066
sV26065
p755
I26065
sV26064
p756
I26064
sV26063
p757
I26063
sV26062
p758
I26062
sV26061
p759
I26061
sV26060
p760
I26060
sV26069
p761
I26069
sV26068
p762
I26068
sV07027
p763
I7027
sV15048
p764
I15048
sV20450
p765
I20450
sV20451
p766
I20451
sV20452
p767
I20452
sV20453
p768
I20453
sV20454
p769
I20454
sV20455
p770
I20455
sV20456
p771
I20456
sV20457
p772
I20457
sV20458
p773
I20458
sV20459
p774
I20459
sV14068
p775
I14068
sV14069
p776
I14069
sV14066
p777
I14066
sV14067
p778
I14067
sV14064
p779
I14064
sV14065
p780
I14065
sV14062
p781
I14062
sV14063
p782
I14063
sV14060
p783
I14060
sV14061
p784
I14061
sV30169
p785
I30169
sV30168
p786
I30168
sV30165
p787
I30165
sV30164
p788
I30164
sV30167
p789
I30167
sV30166
p790
I30166
sV30161
p791
I30161
sV30160
p792
I30216
sV30163
p793
I30163
sV30162
p794
I30162
sV20298
p795
I20298
sV20299
p796
I20299
sV20296
p797
I20296
sV20297
p798
I20297
sV20294
p799
I20294
sV20295
p800
I20295
sV20292
p801
I20292
sV20293
p802
I20293
sV20290
p803
I20290
sV20291
p804
I20291
sV24025
p805
I24025
sV24024
p806
I24024
sV24027
p807
I24027
sV24026
p808
I24026
sV24021
p809
I24021
sV24020
p810
I24020
sV24023
p811
I24023
sV24022
p812
I24022
sV20054
p813
I20054
sV20055
p814
I20055
sV20056
p815
I20056
sV20057
p816
I20572
sV24029
p817
I24029
sV20051
p818
I20051
sV20052
p819
I20052
sV20053
p820
I20053
sV07031
p821
I7031
sV07030
p822
I7030
sV07033
p823
I7033
sV07032
p824
I7032
sV07035
p825
I7035
sV07034
p826
I7034
sV07037
p827
I7037
sV07036
p828
I7036
sV07039
p829
I7039
sV07038
p830
I7038
sV30015
p831
I30015
sV30014
p832
I30014
sV30017
p833
I30017
sV30016
p834
I30016
sV30011
p835
I30011
sV30010
p836
I30010
sV31018
p837
I31018
sV31019
p838
I31019
sV31016
p839
I31016
sV31017
p840
I31017
sV31014
p841
I31014
sV31015
p842
I31015
sV31012
p843
I31012
sV31013
p844
I31013
sV31010
p845
I31010
sV31011
p846
I31011
sV15007
p847
I15007
sV15006
p848
I15006
sV15005
p849
I15005
sV15004
p850
I15004
sV15003
p851
I15003
sV15002
p852
I15002
sV15001
p853
I32060
sV21019
p854
I21019
sV15009
p855
I15009
sV15008
p856
I15008
sV20213
p857
I20213
sV11018
p858
I11018
sV11019
p859
I11019
sV11014
p860
I11048
sV11015
p861
I11015
sV11016
p862
I11016
sV11017
p863
I11017
sV11010
p864
I11010
sV11011
p865
I11011
sV11012
p866
I11012
sV11013
p867
I11013
sV23011
p868
I32070
sV23010
p869
I23010
sV21018
p870
I21018
sV21016
p871
I21016
sV20232
p872
I20232
sV14053
p873
I14053
sV14052
p874
I14052
sV14051
p875
I14051
sV14050
p876
I14050
sV20111
p877
I20111
sV14056
p878
I14056
sV16028
p879
I16028
sV16029
p880
I16029
sV20113
p881
I20113
sV19038
p882
I19038
sV19039
p883
I19039
sV19036
p884
I19036
sV16021
p885
I16021
sV19034
p886
I19034
sV19035
p887
I19035
sV19032
p888
I19032
sV19033
p889
I19033
sV19030
p890
I19030
sV19031
p891
I19031
sV32040
p892
I32040
sV32041
p893
I32041
sV32042
p894
I32042
sV32043
p895
I32043
sV32044
p896
I32044
sV32045
p897
I32045
sV32046
p898
I32046
sV32047
p899
I32059
sV32048
p900
I32048
sV32049
p901
I32049
sV12042
p902
I12042
sV12043
p903
I12043
sV12040
p904
I12040
sV12041
p905
I12041
sV12046
p906
I12046
sV12047
p907
I12047
sV12044
p908
I12044
sV12045
p909
I12045
sV12048
p910
I12048
sV12049
p911
I12049
sV01006
p912
I1006
sV16110
p913
I16110
sV16111
p914
I16111
sV16112
p915
I16112
sV16113
p916
I16113
sV30007
p917
I30007
sV21080
p918
I21080
sV21081
p919
I21081
sV21082
p920
I21082
sV21083
p921
I21083
sV21084
p922
I21084
sV21085
p923
I21085
sV21086
p924
I21086
sV21087
p925
I21087
sV21088
p926
I21088
sV21089
p927
I21089
sV26070
p928
I26070
sV26071
p929
I26071
sV26072
p930
I26072
sV14059
p931
I14059
sV14058
p932
I14058
sV20119
p933
I20119
sV20118
p934
I20118
sV20115
p935
I20115
sV20114
p936
I20114
sV20117
p937
I20117
sV20116
p938
I20116
sV14057
p939
I14057
sV20110
p940
I20110
sV14055
p941
I14055
sV20112
p942
I20112
sV30178
p943
I30178
sV30179
p944
I30179
sV30176
p945
I30176
sV30177
p946
I30177
sV30174
p947
I30174
sV30175
p948
I30175
sV30172
p949
I30172
sV30173
p950
I30173
sV30170
p951
I30170
sV30171
p952
I30171
sV20029
p953
I20029
sV24037
p954
I24037
sV24034
p955
I24034
sV24035
p956
I24035
sV24032
p957
I24032
sV24033
p958
I24033
sV24030
p959
I24030
sV24031
p960
I24031
sV20021
p961
I20021
sV20020
p962
I20020
sV20023
p963
I20023
sV20022
p964
I20022
sV20025
p965
I20025
sV20024
p966
I20024
sV24038
p967
I24038
sV24039
p968
I24039
sV20435
p969
I20435
sV20344
p970
I20344
sV20345
p971
I20345
sV15124
p972
I15124
sV15125
p973
I15125
sV07020
p974
I7020
sV07021
p975
I7021
sV07026
p976
I7026
sV15121
p977
I15121
sV15122
p978
I15122
sV15123
p979
I15123
sV07028
p980
I7028
sV07029
p981
I7029
sV20335
p982
I20335
sV20334
p983
I20334
sV20337
p984
I20337
sV20336
p985
I20336
sV20331
p986
I20331
sV20330
p987
I20330
sV20333
p988
I20574
sV20332
p989
I20332
sV20339
p990
I20339
sV20338
p991
I20338
sV30006
p992
I30006
sV24036
p993
I24036
sV30004
p994
I30004
sV30005
p995
I30005
sV30002
p996
I30002
sV30003
p997
I30003
sV20028
p998
I20028
sV31023
p999
I31023
sV31022
p1000
I31022
sV31021
p1001
I31021
sV31020
p1002
I31020
sV31027
p1003
I31027
sV31026
p1004
I31026
sV30008
p1005
I30008
sV30009
p1006
I30009
sV15010
p1007
I15010
sV15011
p1008
I15011
sV15012
p1009
I15012
sV15013
p1010
I15013
sV15014
p1011
I15014
sV15015
p1012
I15015
sV15016
p1013
I15016
sV15017
p1014
I15017
sV15018
p1015
I15018
sV15019
p1016
I15019
sV23002
p1017
I23002
sV23003
p1018
I23003
sV23001
p1019
I23001
sV23006
p1020
I23006
sV23007
p1021
I23007
sV23004
p1022
I23004
sV23005
p1023
I23005
sV23008
p1024
I23008
sV23009
p1025
I23009
sV20027
p1026
I20027
sV20026
p1027
I20026
sV19009
p1028
I19009
sV19008
p1029
I19008
sV19003
p1030
I19003
sV19002
p1031
I19002
sV19001
p1032
I19001
sV19007
p1033
I19007
sV19006
p1034
I19006
sV19005
p1035
I19005
sV19004
p1036
I19004
sV07022
p1037
I7022
sV20030
p1038
I20030
sV07023
p1039
I7023
sV12079
p1040
I12079
sV12078
p1041
I12078
sV12077
p1042
I12077
sV15120
p1043
I15120
sV12075
p1044
I12075
sV12074
p1045
I12074
sV12073
p1046
I12073
sV12072
p1047
I12072
sV12071
p1048
I12071
sV12070
p1049
I12070
sV07024
p1050
I7024
sV07025
p1051
I7025
sV21079
p1052
I21079
sV21078
p1053
I21078
sV21075
p1054
I21075
sV21074
p1055
I21074
sV21077
p1056
I21077
sV21076
p1057
I21076
sV21071
p1058
I21071
sV21070
p1059
I21070
sV21073
p1060
I21073
sV21072
p1061
I21072
sV20142
p1062
I20142
sV20143
p1063
I20143
sV20149
p1064
I20149
sV21211
p1065
I21211
sV21210
p1066
I21210
sV21213
p1067
I21213
sV21212
p1068
I21212
sV21215
p1069
I21215
sV21214
p1070
I21214
sV21217
p1071
I21217
sV21216
p1072
I21216
sV21189
p1073
I21189
sV21188
p1074
I21188
sV21181
p1075
I21181
sV21180
p1076
I21180
sV21183
p1077
I21183
sV21182
p1078
I21182
sV21185
p1079
I21185
sV21184
p1080
I21184
sV21187
p1081
I21187
sV21186
p1082
I21186
sV20148
p1083
I20148
sV14044
p1084
I14044
sV14045
p1085
I14045
sV14046
p1086
I14046
sV14047
p1087
I14047
sV14040
p1088
I14040
sV14041
p1089
I14041
sV14042
p1090
I14042
sV14043
p1091
I14043
sV14048
p1092
I14048
sV14049
p1093
I14049
sV10005
p1094
I10005
sV10039
p1095
I10039
sV10038
p1096
I10038
sV20108
p1097
I20108
sV20109
p1098
I20109
sV10035
p1099
I10035
sV10034
p1100
I10034
sV10037
p1101
I10037
sV10036
p1102
I10036
sV10031
p1103
I10031
sV20103
p1104
I20103
sV10033
p1105
I10033
sV10032
p1106
I10032
sV28010
p1107
I28010
sV28011
p1108
I28011
sV28012
p1109
I28012
sV30149
p1110
I30149
sV30148
p1111
I30148
sV30143
p1112
I30143
sV30142
p1113
I30142
sV30141
p1114
I30141
sV30140
p1115
I30140
sV30147
p1116
I30147
sV30146
p1117
I30146
sV30145
p1118
I30145
sV30144
p1119
I30144
sV30013
p1120
I30013
sV28016
p1121
I28016
sV29018
p1122
I29018
sV24003
p1123
I24003
sV24002
p1124
I24002
sV24001
p1125
I24001
sV20039
p1126
I20039
sV24007
p1127
I24007
sV24006
p1128
I24006
sV24005
p1129
I24005
sV24004
p1130
I24004
sV20032
p1131
I20032
sV20033
p1132
I20033
sV24009
p1133
I24009
sV24008
p1134
I24008
sV20036
p1135
I20036
sV20037
p1136
I20037
sV20034
p1137
I20034
sV20035
p1138
I20035
sV03001
p1139
I3001
sV03002
p1140
I3002
sV07018
p1141
I7018
sV07017
p1142
I7017
sV07016
p1143
I7016
sV07015
p1144
I7015
sV07014
p1145
I7014
sV07013
p1146
I7013
sV07012
p1147
I7012
sV07011
p1148
I7011
sV07010
p1149
I7010
sV20326
p1150
I20326
sV20327
p1151
I20327
sV20324
p1152
I20324
sV20325
p1153
I20325
sV20322
p1154
I20322
sV20323
p1155
I20323
sV20320
p1156
I20320
sV20321
p1157
I20321
sV20328
p1158
I20328
sV20329
p1159
I20329
sV30033
p1160
I30214
sV30032
p1161
I30032
sV30031
p1162
I30031
sV30030
p1163
I30030
sV30037
p1164
I30037
sV30036
p1165
I30036
sV30035
p1166
I30035
sV30034
p1167
I30034
sV30039
p1168
I30039
sV30038
p1169
I30038
sV31029
p1170
I31029
sV31028
p1171
I31028
sV24028
p1172
I24028
sV30001
p1173
I30001
sV20151
p1174
I20151
sV30206
p1175
I30206
sV31025
p1176
I31025
sV31024
p1177
I31024
sV31034
p1178
I31034
sV31035
p1179
I31035
sV31036
p1180
I31036
sV31037
p1181
I31037
sV31030
p1182
I31030
sV31031
p1183
I31031
sV31032
p1184
I31032
sV31033
p1185
I31033
sV31038
p1186
I31038
sV31039
p1187
I31039
sV20152
p1188
I20152
sV19014
p1189
I19068
sV19015
p1190
I19064
sV19016
p1191
I19070
sV19017
p1192
I19017
sV19010
p1193
I19069
sV19011
p1194
I19011
sV19012
p1195
I19012
sV19013
p1196
I19013
sV19018
p1197
I19018
sV19019
p1198
I19019
sV12068
p1199
I12068
sV12069
p1200
I12069
sV12060
p1201
I12060
sV12061
p1202
I12061
sV12062
p1203
I12062
sV12063
p1204
I12063
sV12064
p1205
I12064
sV12065
p1206
I12065
sV12066
p1207
I12066
sV12067
p1208
I12067
sV20157
p1209
I20157
sV-1
p1210
I-1
sV-2
p1211
I-2
sV24043
p1212
I24043
sV24042
p1213
I24042
sV21068
p1214
I21068
sV21069
p1215
I21069
sV21066
p1216
I21066
sV21067
p1217
I21067
sV21064
p1218
I21064
sV21065
p1219
I21065
sV21062
p1220
I21062
sV21063
p1221
I21063
sV21060
p1222
I21060
sV21061
p1223
I21061
sV24049
p1224
I24049
sV24048
p1225
I24048
sV21208
p1226
I21208
sV21209
p1227
I21209
sV21202
p1228
I21202
sV21203
p1229
I21203
sV21200
p1230
I21200
sV21201
p1231
I21201
sV21206
p1232
I21206
sV21207
p1233
I21207
sV21204
p1234
I21204
sV21205
p1235
I21205
sV21198
p1236
I21198
sV21199
p1237
I21199
sV21192
p1238
I21192
sV21193
p1239
I21193
sV21190
p1240
I21190
sV21191
p1241
I21191
sV21196
p1242
I21196
sV21197
p1243
I21197
sV21194
p1244
I21194
sV21195
p1245
I21195
sV12080
p1246
I12080
sV12081
p1247
I12081
sV14031
p1248
I14031
sV14030
p1249
I14030
sV20489
p1250
I20489
sV14032
p1251
I14032
sV14035
p1252
I14035
sV14034
p1253
I14034
sV14037
p1254
I14037
sV14036
p1255
I14036
sV20483
p1256
I20483
sV20482
p1257
I20482
sV20481
p1258
I20481
sV20480
p1259
I20480
sV20487
p1260
I20487
sV20486
p1261
I20486
sV20485
p1262
I20485
sV20484
p1263
I20484
sV20139
p1264
I20139
sV20138
p1265
I20138
sV10028
p1266
I10028
sV10029
p1267
I10029
sV10026
p1268
I10026
sV10027
p1269
I10027
sV10024
p1270
I10024
sV10025
p1271
I10025
sV10022
p1272
I10022
sV20136
p1273
I20136
sV20135
p1274
I20135
sV20134
p1275
I20134
sV20540
p1276
I20540
sV20007
p1277
I20007
sV20006
p1278
I20006
sV20005
p1279
I20005
sV20004
p1280
I20004
sV20551
p1281
I20551
sV20550
p1282
I20550
sV20553
p1283
I20553
sV20552
p1284
I20552
sV20559
p1285
I20559
sV20558
p1286
I20558
sV20009
p1287
I20009
sV20008
p1288
I20008
sV24018
p1289
I24018
sV24019
p1290
I24019
sV24014
p1291
I24014
sV24015
p1292
I24015
sV24016
p1293
I24016
sV24017
p1294
I24017
sV24010
p1295
I24010
sV24011
p1296
I24011
sV24012
p1297
I24059
sV24013
p1298
I24013
sV20229
p1299
I20229
sV07008
p1300
I7008
sV07009
p1301
I7009
sV07001
p1302
I7001
sV07002
p1303
I7002
sV07003
p1304
I7003
sV07004
p1305
I7004
sV07005
p1306
I7005
sV07006
p1307
I7006
sV07007
p1308
I7007
sV20313
p1309
I20313
sV20312
p1310
I20312
sV20311
p1311
I20311
sV20310
p1312
I20310
sV20317
p1313
I20317
sV20316
p1314
I20316
sV20315
p1315
I20315
sV20314
p1316
I20314
sV20319
p1317
I32067
sV20318
p1318
I32066
sV30154
p1319
I30154
sV30155
p1320
I30155
sV30156
p1321
I30156
sV30157
p1322
I30157
sV30150
p1323
I30150
sV30151
p1324
I30151
sV30152
p1325
I30152
sV30153
p1326
I30153
sV30158
p1327
I30158
sV30159
p1328
I30159
sV30210
p1329
I30210
sV30028
p1330
I30028
sV30029
p1331
I30029
sV30024
p1332
I30024
sV30025
p1333
I30025
sV30026
p1334
I30026
sV30027
p1335
I30027
sV30020
p1336
I30020
sV30021
p1337
I30021
sV30022
p1338
I30022
sV30023
p1339
I30023
sV11046
p1340
I11046
sV11045
p1341
I11045
sV11044
p1342
I11044
sV11043
p1343
I11043
sV11042
p1344
I11042
sV18020
p1345
I18020
sV11040
p1346
I11040
sV07119
p1347
I7119
sV29060
p1348
I29060
sV28043
p1349
I28043
sV28042
p1350
I28042
sV28041
p1351
I28041
sV28040
p1352
I28040
sV31041
p1353
I31041
sV31040
p1354
I31040
sV31043
p1355
I31043
sV31042
p1356
I31042
sV31045
p1357
I31045
sV31044
p1358
I31044
sV31047
p1359
I31047
sV31046
p1360
I31046
sV31049
p1361
I31049
sV31048
p1362
I31048
sV16099
p1363
I16099
sV16098
p1364
I16098
sV16091
p1365
I16091
sV16090
p1366
I16090
sV16093
p1367
I16093
sV16092
p1368
I16092
sV16095
p1369
I16095
sV16094
p1370
I16094
sV16097
p1371
I16097
sV16096
p1372
I16096
sV28018
p1373
I28018
sV30109
p1374
I30109
sV30108
p1375
I30108
sV28019
p1376
I28019
sV21059
p1377
I21059
sV21058
p1378
I21058
sV21053
p1379
I21053
sV21052
p1380
I21052
sV21051
p1381
I21051
sV21050
p1382
I21050
sV21057
p1383
I21057
sV21056
p1384
I21056
sV21055
p1385
I21055
sV21054
p1386
I21054
sV08014
p1387
I8014
sV05026
p1388
I5026
sV30100
p1389
I30100
sV05027
p1390
I5027
sV20124
p1391
I20124
sV20125
p1392
I20125
sV20126
p1393
I20126
sV20127
p1394
I20127
sV20120
p1395
I20120
sV20121
p1396
I20121
sV20122
p1397
I20122
sV20123
p1398
I20123
sV14028
p1399
I14028
sV14029
p1400
I14029
sV20128
p1401
I20128
sV20129
p1402
I20129
sV05037
p1403
I5037
sV10019
p1404
I10019
sV10018
p1405
I10018
sV05036
p1406
I5036
sV10013
p1407
I10013
sV10012
p1408
I10012
sV10011
p1409
I10011
sV10010
p1410
I10010
sV10017
p1411
I10017
sV05035
p1412
I5035
sV10015
p1413
I10015
sV10014
p1414
I10014
sV05034
p1415
I5034
sV05033
p1416
I5033
sV05032
p1417
I5032
sV26032
p1418
I26032
sV05030
p1419
I5030
sV14022
p1420
I14022
sV14023
p1421
I14023
sV07053
p1422
I7053
sV14020
p1423
I14020
sV20010
p1424
I20010
sV20547
p1425
I20547
sV20544
p1426
I20544
sV14021
p1427
I14021
sV20542
p1428
I20542
sV20543
p1429
I20543
sV20016
p1430
I20016
sV20017
p1431
I20017
sV20018
p1432
I20018
sV14026
p1433
I14026
sV20548
p1434
I20548
sV20549
p1435
I20576
sV14024
p1436
I14024
sV07052
p1437
I7052
sV14025
p1438
I14025
sV20494
p1439
I20494
sV20495
p1440
I20495
sV20496
p1441
I20496
sV20497
p1442
I20497
sV20490
p1443
I20490
sV20491
p1444
I20491
sV20492
p1445
I20492
sV20493
p1446
I20493
sV20498
p1447
I20498
sV20499
p1448
I20499
sV28032
p1449
I28032
sV28033
p1450
I28033
sV20214
p1451
I20214
sV04009
p1452
I4009
sV04008
p1453
I4008
sV28031
p1454
I28031
sV04001
p1455
I4001
sV28036
p1456
I28036
sV04003
p1457
I4003
sV04002
p1458
I4002
sV04005
p1459
I4005
sV04004
p1460
I4004
sV04007
p1461
I4007
sV04006
p1462
I4006
sV07050
p1463
I7050
sV20308
p1464
I20308
sV20309
p1465
I20309
sV20304
p1466
I20304
sV20305
p1467
I20305
sV20306
p1468
I20306
sV20307
p1469
I20307
sV20300
p1470
I20300
sV20301
p1471
I20301
sV20302
p1472
I20302
sV20303
p1473
I20303
sV30121
p1474
I30121
sV30120
p1475
I30120
sV30123
p1476
I30123
sV30122
p1477
I30122
sV30125
p1478
I30125
sV30124
p1479
I30124
sV30127
p1480
I30127
sV30126
p1481
I30126
sV30129
p1482
I30129
sV30128
p1483
I30128
sV08018
p1484
I8018
sV07101
p1485
I7101
sV30058
p1486
I30058
sV07103
p1487
I7103
sV07102
p1488
I7102
sV07105
p1489
I7105
sV07104
p1490
I7104
sV07107
p1491
I7107
sV07106
p1492
I7106
sV07109
p1493
I7109
sV07108
p1494
I7108
sV30053
p1495
I30053
sV30052
p1496
I30052
sV30055
p1497
I30055
sV30054
p1498
I30054
sV30057
p1499
I30057
sV30056
p1500
I30056
sV18013
p1501
I18013
sV18012
p1502
I18012
sV18011
p1503
I18011
sV18010
p1504
I18010
sV18017
p1505
I18017
sV18016
p1506
I18016
sV18015
p1507
I18015
sV18014
p1508
I18014
sV18019
p1509
I18019
sV18018
p1510
I18018
sV07056
p1511
I7056
sV16022
p1512
I16022
sV29053
p1513
I29053
sV29052
p1514
I29052
sV29051
p1515
I29051
sV29050
p1516
I29050
sV29057
p1517
I29057
sV29056
p1518
I29056
sV29055
p1519
I29055
sV29054
p1520
I29054
sV29059
p1521
I29059
sV29058
p1522
I29058
sV08017
p1523
I8017
sV31052
p1524
I31052
sV31053
p1525
I31053
sV31050
p1526
I31050
sV31051
p1527
I31051
sV31056
p1528
I31056
sV31057
p1529
I31057
sV31054
p1530
I31054
sV31055
p1531
I31055
sV31058
p1532
I31058
sV31059
p1533
I31059
sV20342
p1534
I20342
sV10016
p1535
I10016
sV12076
p1536
I12076
sV29013
p1537
I29013
sV16088
p1538
I16088
sV16089
p1539
I16089
sV16082
p1540
I16082
sV16083
p1541
I16083
sV16080
p1542
I16080
sV16081
p1543
I16081
sV16086
p1544
I16086
sV16087
p1545
I16087
sV16084
p1546
I16084
sV16085
p1547
I16085
sV21044
p1548
I21044
sV21045
p1549
I21045
sV21046
p1550
I21046
sV21047
p1551
I21047
sV21040
p1552
I21040
sV21041
p1553
I21041
sV21042
p1554
I21042
sV21043
p1555
I21043
sV21048
p1556
I21048
sV21049
p1557
I21049
sV28015
p1558
I28015
sV11001
p1559
I11001
sV20546
p1560
I20546
sV14096
p1561
I14096
sV14095
p1562
I14095
sV20545
p1563
I20545
sV20014
p1564
I20014
sV11009
p1565
I11009
sV20015
p1566
I20015
sV10004
p1567
I10004
sV20150
p1568
I20150
sV10006
p1569
I10041
sV15031
p1570
I15031
sV20155
p1571
I20155
sV10001
p1572
I10001
sV14019
p1573
I14019
sV10003
p1574
I10003
sV14017
p1575
I14017
sV14016
p1576
I14016
sV14015
p1577
I14015
sV14014
p1578
I14014
sV14013
p1579
I14013
sV14012
p1580
I14012
sV14011
p1581
I14011
sV14010
p1582
I14010
sV20461
p1583
I20461
sV20019
p1584
I20019
sV20463
p1585
I20463
sV30077
p1586
I30077
sV20462
p1587
I20462
sV30076
p1588
I30076
sV20465
p1589
I20465
sV20464
p1590
I20464
sV20467
p1591
I20467
sV20466
p1592
I20466
sV30072
p1593
I30072
sV20570
p1594
I20570
sV30079
p1595
I30079
sV30078
p1596
I30078
sV08009
p1597
I8009
sV08008
p1598
I8008
sV08005
p1599
I8005
sV08004
p1600
I8004
sV08007
p1601
I8007
sV08006
p1602
I8006
sV14054
p1603
I14054
sV08003
p1604
I8003
sV08002
p1605
I8002
sV04010
p1606
I4010
sV04011
p1607
I4011
sV20379
p1608
I20379
sV20378
p1609
I20378
sV20371
p1610
I20371
sV20370
p1611
I20370
sV20373
p1612
I20373
sV20372
p1613
I20372
sV20375
p1614
I20375
sV20374
p1615
I20374
sV20377
p1616
I20377
sV20376
p1617
I20376
sV13005
p1618
I13005
sV13004
p1619
I13004
sV30130
p1620
I30130
sV13006
p1621
I13006
sV13001
p1622
I13001
sV30137
p1623
I30137
sV30134
p1624
I30134
sV13002
p1625
I13002
sV30138
p1626
I30138
sV30139
p1627
I30139
sV13009
p1628
I13009
sV13008
p1629
I13008
sV07112
p1630
I7112
sV07113
p1631
I7113
sV30048
p1632
I30048
sV30049
p1633
I30049
sV07116
p1634
I7116
sV07117
p1635
I7117
sV07114
p1636
I7114
sV07115
p1637
I7115
sV30042
p1638
I30042
sV30043
p1639
I30043
sV30040
p1640
I30040
sV30041
p1641
I30041
sV30046
p1642
I30046
sV30047
p1643
I30047
sV30044
p1644
I30044
sV30045
p1645
I30045
sV18008
p1646
I18008
sV18009
p1647
I18009
sV18004
p1648
I18004
sV18005
p1649
I18005
sV18006
p1650
I18006
sV18007
p1651
I18007
sV18001
p1652
I18001
sV18002
p1653
I18002
sV18003
p1654
I18003
sV20205
p1655
I20205
sV20204
p1656
I20204
sV20207
p1657
I20207
sV20206
p1658
I20206
sV28025
p1659
I28025
sV20200
p1660
I20200
sV20203
p1661
I20203
sV28026
p1662
I28026
sV28029
p1663
I28029
sV28028
p1664
I28028
sV20209
p1665
I32065
sV20208
p1666
I32064
sV29048
p1667
I29048
sV29049
p1668
I29062
sV29044
p1669
I29044
sV29045
p1670
I29045
sV29046
p1671
I29046
sV29047
p1672
I29047
sV29040
p1673
I29040
sV29041
p1674
I29041
sV29042
p1675
I29042
sV29043
p1676
I29064
sV31069
p1677
I31069
sV31068
p1678
I31068
sV31067
p1679
I31067
sV31066
p1680
I31066
sV31065
p1681
I31065
sV31064
p1682
I31064
sV31063
p1683
I31063
sV31062
p1684
I31062
sV31061
p1685
I31061
sV31060
p1686
I31060
sV31085
p1687
I31085
sV31084
p1688
I31084
sV31087
p1689
I31087
sV31086
p1690
I31086
sV31081
p1691
I31081
sV31080
p1692
I31080
sV31083
p1693
I31083
sV31082
p1694
I31082
sV31089
p1695
I31089
sV31088
p1696
I31088
sV05004
p1697
I5004
sV19049
p1698
I19049
sV19048
p1699
I19048
sV19047
p1700
I19047
sV19046
p1701
I19046
sV19045
p1702
I19045
sV19044
p1703
I19044
sV19043
p1704
I19043
sV19042
p1705
I19042
sV19041
p1706
I19041
sV19040
p1707
I19040
sV10023
p1708
I10023
sV10020
p1709
I10020
sV14018
p1710
I14018
sV26013
p1711
I26013
sV21031
p1712
I21031
sV21030
p1713
I21030
sV21033
p1714
I21033
sV21032
p1715
I21032
sV21035
p1716
I21035
sV21034
p1717
I21034
sV21037
p1718
I21037
sV21036
p1719
I21036
sV21039
p1720
I21039
sV21038
p1721
I21038
sV26010
p1722
I26010
sV05008
p1723
I5008
sV26011
p1724
I26011
sV20347
p1725
I20347
sV05009
p1726
I5009
sV13007
p1727
I13007
sV21149
p1728
I21149
sV21148
p1729
I21148
sV21145
p1730
I21145
sV21144
p1731
I21144
sV21147
p1732
I21147
sV21146
p1733
I21146
sV21141
p1734
I21141
sV21140
p1735
I21140
sV21143
p1736
I21143
sV21142
p1737
I21142
sV30112
p1738
I30112
sV14008
p1739
I14008
sV14009
p1740
I14009
sV20140
p1741
I20140
sV20141
p1742
I20141
sV20146
p1743
I20146
sV20147
p1744
I20147
sV20144
p1745
I20144
sV20145
p1746
I20145
sV14001
p1747
I14001
sV14002
p1748
I14002
sV14003
p1749
I14003
sV14004
p1750
I14004
sV14005
p1751
I14005
sV14006
p1752
I14006
sV14007
p1753
I14007
sV20137
p1754
I20137
sV20488
p1755
I20488
sV30059
p1756
I30059
sV07100
p1757
I7100
sV24047
p1758
I24047
sV24046
p1759
I24046
sV24045
p1760
I24045
sV24044
p1761
I24044
sV20568
p1762
I20568
sV20569
p1763
I20569
sV24041
p1764
I24041
sV24040
p1765
I24040
sV20564
p1766
I20564
sV20565
p1767
I20565
sV20566
p1768
I32062
sV20567
p1769
I20567
sV20560
p1770
I20560
sV20561
p1771
I20561
sV20562
p1772
I20562
sV20563
p1773
I20563
sV26016
p1774
I26016
sV26017
p1775
I26017
sV26014
p1776
I26014
sV30051
p1777
I30051
sV26015
p1778
I26015
sV30050
p1779
I30050
sV26012
p1780
I26012
sV28034
p1781
I28034
sV09015
p1782
I9015
sV09014
p1783
I9014
sV09017
p1784
I9017
sV09016
p1785
I9016
sV09011
p1786
I9011
sV09010
p1787
I9018
sV09013
p1788
I9013
sV09012
p1789
I9012
sV08016
p1790
I8016
sV30212
p1791
I30212
sV30211
p1792
I30211
sV08015
p1793
I8015
sV08012
p1794
I8012
sV08013
p1795
I8013
sV08010
p1796
I8010
sV08011
p1797
I8011
sV28035
p1798
I28035
sV20368
p1799
I20368
sV20369
p1800
I20369
sV20362
p1801
I20362
sV20363
p1802
I20363
sV20360
p1803
I20360
sV20361
p1804
I20361
sV20366
p1805
I20366
sV20367
p1806
I20367
sV20364
p1807
I20364
sV20365
p1808
I20365
sV13016
p1809
I13016
sV13017
p1810
I13017
sV13014
p1811
I13014
sV13015
p1812
I13015
sV13012
p1813
I13012
sV13013
p1814
I13013
sV13010
p1815
I13010
sV13011
p1816
I13011
sV30107
p1817
I30107
sV30106
p1818
I30106
sV30105
p1819
I32069
sV30104
p1820
I30104
sV30103
p1821
I30103
sV30102
p1822
I30102
sV13018
p1823
I13018
sV13019
p1824
I13019
sV20216
p1825
I20216
sV20217
p1826
I20217
sV28030
p1827
I28030
sV20215
p1828
I20215
sV20212
p1829
I20212
sV28037
p1830
I28037
sV20210
p1831
I20210
sV20211
p1832
I20211
sV28038
p1833
I28038
sV28039
p1834
I28039
sV20218
p1835
I20218
sV20219
p1836
I20219
sV29039
p1837
I29039
sV29038
p1838
I29038
sV29031
p1839
I29031
sV29030
p1840
I29030
sV29033
p1841
I29033
sV29032
p1842
I29032
sV29035
p1843
I29035
sV29034
p1844
I29034
sV29037
p1845
I29063
sV29036
p1846
I29036
sV19025
p1847
I19065
sV20539
p1848
I20539
sV19024
p1849
I19067
sV20538
p1850
I20538
sV16035
p1851
I16035
sV19026
p1852
I19026
sV19021
p1853
I19066
sV19020
p1854
I19061
sV31078
p1855
I31078
sV31079
p1856
I31079
sV30075
p1857
I30075
sV30074
p1858
I30215
sV30073
p1859
I30073
sV19023
p1860
I19063
sV30071
p1861
I30071
sV30070
p1862
I30070
sV31070
p1863
I31070
sV31071
p1864
I31071
sV31072
p1865
I31072
sV31073
p1866
I31073
sV31074
p1867
I31074
sV31075
p1868
I31075
sV31076
p1869
I31076
sV31077
p1870
I31077
sV31096
p1871
I31096
sV31097
p1872
I31097
sV31094
p1873
I31094
sV31095
p1874
I31095
sV31092
p1875
I31092
sV31093
p1876
I31093
sV31090
p1877
I31090
sV31091
p1878
I31091
sV20104
p1879
I20104
sV31098
p1880
I31098
sV31099
p1881
I31099
sV20105
p1882
I20105
sV28013
p1883
I28013
sV19050
p1884
I19050
sV19051
p1885
I19051
sV10030
p1886
I10030
sV20100
p1887
I20100
sV20101
p1888
I20101
sV19022
p1889
I19062
sV21022
p1890
I21022
sV21023
p1891
I21023
sV21020
p1892
I21020
sV21021
p1893
I21021
sV21026
p1894
I21026
sV21027
p1895
I21027
sV21024
p1896
I21024
sV21025
p1897
I21025
sV21028
p1898
I21028
sV21029
p1899
I21029
sV25018
p1900
I25018
sV25013
p1901
I25013
sV25012
p1902
I25012
sV25011
p1903
I25011
sV25010
p1904
I25010
sV25017
p1905
I25017
sV25016
p1906
I25016
sV25015
p1907
I25015
sV25014
p1908
I25014
sV28014
p1909
I28014
sV20106
p1910
I20106
sV21158
p1911
I21158
sV21159
p1912
I21159
sV21156
p1913
I21156
sV21157
p1914
I21157
sV21154
p1915
I21154
sV21155
p1916
I21155
sV21152
p1917
I21152
sV21153
p1918
I21153
sV21150
p1919
I21150
sV21151
p1920
I21151
sV20107
p1921
I20107
sV20179
p1922
I20179
sV20178
p1923
I20178
sV20177
p1924
I20177
sV20176
p1925
I20176
sV20175
p1926
I20175
sV20174
p1927
I20174
sV20173
p1928
I20173
sV20172
p1929
I20172
sV20171
p1930
I20171
sV20170
p1931
I20170
sV17009
p1932
I17009
sV17008
p1933
I17008
sV17001
p1934
I17001
sV17003
p1935
I17003
sV17002
p1936
I17002
sV17005
p1937
I17005
sV17004
p1938
I17004
sV17007
p1939
I17007
sV17006
p1940
I17006
sV08048
p1941
I8048
sV14101
p1942
I14101
sV14100
p1943
I14100
sV14103
p1944
I14103
sV14102
p1945
I14102
sV14105
p1946
I14105
sV14104
p1947
I14104
sV14107
p1948
I14107
sV14106
p1949
I14106
sV14109
p1950
I14109
sV14108
p1951
I14108
sV24050
p1952
I24050
sV20518
p1953
I20518
sV24052
p1954
I24052
sV28022
p1955
I28022
sV24054
p1956
I24054
sV24055
p1957
I24055
sV24056
p1958
I24056
sV24057
p1959
I24057
sV24058
p1960
I24058
sV11021
p1961
I11021
sV20513
p1962
I20513
sV20512
p1963
I20512
sV20515
p1964
I20515
sV20514
p1965
I20514
sV20517
p1966
I20517
sV11020
p1967
I11020
sV01011
p1968
I1011
sV01010
p1969
I1010
sV20400
p1970
I20400
sV28024
p1971
I28024
sV09006
p1972
I9006
sV09007
p1973
I9007
sV08029
p1974
I8029
sV09005
p1975
I9005
sV09002
p1976
I9002
sV09003
p1977
I9003
sV08023
p1978
I8023
sV11029
p1979
I11029
sV08021
p1980
I8021
sV08020
p1981
I8020
sV08027
p1982
I8027
sV30101
p1983
I30101
sV08025
p1984
I8025
sV11028
p1985
I11028
sV20425
p1986
I20425
sV20424
p1987
I20424
sV20427
p1988
I20427
sV20426
p1989
I20426
sV20353
p1990
I20353
sV20352
p1991
I20352
sV20351
p1992
I20351
sV20350
p1993
I20350
sV20429
p1994
I20429
sV20428
p1995
I20428
sV20359
p1996
I20359
sV20358
p1997
I20358
sV20195
p1998
I20195
sV20194
p1999
I20194
sV20197
p2000
I20197
sV20196
p2001
I20196
sV20191
p2002
I20191
sV20190
p2003
I20190
sV20193
p2004
I20193
sV20192
p2005
I20192
sV20199
p2006
I20199
sV20198
p2007
I20198
sV30118
p2008
I30118
sV13022
p2009
I13022
sV13021
p2010
I13021
sV13020
p2011
I13020
sV13027
p2012
I13027
sV13026
p2013
I13026
sV13025
p2014
I13025
sV13024
p2015
I13024
sV30110
p2016
I30110
sV30111
p2017
I30111
sV13029
p2018
I13029
sV13028
p2019
I13028
sV30114
p2020
I30114
sV30115
p2021
I30115
sV30116
p2022
I30116
sV30117
p2023
I30117
sV20038
p2024
I20038
sV20223
p2025
I20223
sV20222
p2026
I20222
sV20221
p2027
I20221
sV20220
p2028
I20220
sV20227
p2029
I20227
sV20226
p2030
I20226
sV20225
p2031
I20225
sV20224
p2032
I20224
sV28007
p2033
I28007
sV28006
p2034
I28006
sV28005
p2035
I28005
sV20228
p2036
I20228
sV28003
p2037
I28003
sV28002
p2038
I28002
sV28001
p2039
I28001
sV30204
p2040
I30204
sV30205
p2041
I30205
sV29028
p2042
I29028
sV29029
p2043
I29029
sV30200
p2044
I30200
sV30201
p2045
I30201
sV30202
p2046
I30202
sV30203
p2047
I30203
sV29022
p2048
I29022
sV29023
p2049
I29023
sV29020
p2050
I29020
sV29021
p2051
I29021
sV29026
p2052
I29026
sV29027
p2053
I29027
sV29024
p2054
I29024
sV29025
p2055
I29025
sV20031
p2056
I20031
sV30060
p2057
I30060
sV30061
p2058
I30061
sV30062
p2059
I30062
sV30063
p2060
I30063
sV30064
p2061
I30064
sV30065
p2062
I30065
sV30066
p2063
I30066
sV30067
p2064
I30067
sV30068
p2065
I30068
sV30069
p2066
I30069
sV20340
p2067
I20340
sV20341
p2068
I20341
sV16059
p2069
I16059
sV16058
p2070
I16058
sV16055
p2071
I16055
sV16054
p2072
I16054
sV16057
p2073
I16057
sV16056
p2074
I16056
sV16051
p2075
I16051
sV16050
p2076
I16050
sV16053
p2077
I16053
sV16052
p2078
I16052
sV07019
p2079
I7019
sV03003
p2080
I3003
sV25004
p2081
I25004
sV25005
p2082
I25005
sV25006
p2083
I25006
sV25007
p2084
I25007
sV25001
p2085
I25001
sV25002
p2086
I25002
sV25003
p2087
I25003
sV21017
p2088
I21017
sV03008
p2089
I3008
sV21015
p2090
I21015
sV21014
p2091
I21014
sV21013
p2092
I21013
sV21012
p2093
I21012
sV21011
p2094
I21011
sV03009
p2095
I3009
sV14082
p2096
I14082
sV15097
p2097
I15097
sV20346
p2098
I20346
sV32035
p2099
I32035
sV32034
p2100
I32034
sV32037
p2101
I32037
sV32036
p2102
I32036
sV32031
p2103
I32031
sV32030
p2104
I32030
sV32033
p2105
I32033
sV32032
p2106
I32032
sV21163
p2107
I21163
sV21162
p2108
I21162
sV21161
p2109
I21161
sV21160
p2110
I21160
sV21167
p2111
I21167
sV32038
p2112
I32038
sV21165
p2113
I21165
sV21164
p2114
I21164
sV20168
p2115
I20168
sV20169
p2116
I20169
sV29001
p2117
I29001
sV20160
p2118
I20160
sV20161
p2119
I20161
sV20162
p2120
I20162
sV20163
p2121
I20163
sV20164
p2122
I20164
sV20165
p2123
I20165
sV20166
p2124
I20166
sV20167
p2125
I20167
sV17018
p2126
I17018
sV17019
p2127
I17019
sV17012
p2128
I17012
sV17013
p2129
I17013
sV17010
p2130
I17010
sV17011
p2131
I17011
sV17016
p2132
I17016
sV17017
p2133
I17017
sV17014
p2134
I17014
sV17015
p2135
I17015
sV09009
p2136
I9009
sV26005
p2137
I26005
sV26004
p2138
I26004
sV26007
p2139
I26007
sV26006
p2140
I26006
sV26001
p2141
I26001
sV26003
p2142
I26003
sV26002
p2143
I26002
sV26009
p2144
I26009
sV26008
p2145
I26008
sV14112
p2146
I14112
sV14113
p2147
I14113
sV14110
p2148
I14110
sV14111
p2149
I14111
sV14116
p2150
I14116
sV14117
p2151
I14117
sV14114
p2152
I14114
sV14115
p2153
I14115
sV14118
p2154
I14118
sV14119
p2155
I14119
sV20244
p2156
I20244
sV20508
p2157
I20508
sV20509
p2158
I20509
sV20502
p2159
I20502
sV20503
p2160
I20503
sV20500
p2161
I20500
sV20501
p2162
I20501
sV20506
p2163
I20506
sV20507
p2164
I20507
sV20504
p2165
I20504
sV20505
p2166
I20505
sV20011
p2167
I20011
sV01008
p2168
I1008
sV01009
p2169
I1009
sV11041
p2170
I11041
sV01007
p2171
I1007
sV01004
p2172
I1004
sV01005
p2173
I1005
sV01002
p2174
I1002
sV01003
p2175
I1003
sV01001
p2176
I1001
sV08042
p2177
I8042
sV20012
p2178
I20012
sV29008
p2179
I29008
sV20436
p2180
I20436
sV20437
p2181
I20437
sV20434
p2182
I20434
sV20343
p2183
I20343
sV20432
p2184
I20432
sV20433
p2185
I20433
sV20430
p2186
I20430
sV20431
p2187
I20431
sV20348
p2188
I20348
sV20349
p2189
I20349
sV20013
p2190
I20013
sV20438
p2191
I20438
sV20439
p2192
I20439
sV20186
p2193
I20186
sV20187
p2194
I20187
sV20184
p2195
I20184
sV20185
p2196
I20185
sV20182
p2197
I20182
sV20183
p2198
I20183
sV20180
p2199
I20180
sV20181
p2200
I20181
sV20188
p2201
I20188
sV20189
p2202
I20189
sV13038
p2203
I13038
sV13039
p2204
I13039
sV13034
p2205
I13034
sV13035
p2206
I13035
sV13036
p2207
I13036
sV13037
p2208
I13037
sV13030
p2209
I13030
sV13031
p2210
I13031
sV13032
p2211
I13032
sV13033
p2212
I13033
sV15089
p2213
I15089
sV15088
p2214
I15088
sV15087
p2215
I15087
sV15086
p2216
I15086
sV15085
p2217
I15085
sV15084
p2218
I15084
sV15083
p2219
I15083
sV15082
p2220
I15082
sV15081
p2221
I15081
sV15080
p2222
I15080
sV29017
p2223
I29017
sV29016
p2224
I29016
sV29015
p2225
I29015
sV29014
p2226
I29014
sV20238
p2227
I20238
sV20239
p2228
I20239
sV29011
p2229
I29011
sV29010
p2230
I29010
sV20234
p2231
I20234
sV20235
p2232
I20235
sV20236
p2233
I20236
sV20237
p2234
I20237
sV20230
p2235
I20230
sV20231
p2236
I20231
sV29019
p2237
I29019
sV28017
p2238
I28017
sV08034
p2239
I8034
sV08035
p2240
I8035
sV08036
p2241
I8036
sV08037
p2242
I8037
sV08030
p2243
I8030
sV08031
p2244
I8031
sV08032
p2245
I8032
sV08033
p2246
I8033
sV08038
p2247
I8038
sV08039
p2248
I8039
sV07097
p2249
I7097
sV07096
p2250
I7096
sV07094
p2251
I7094
sV07093
p2252
I7093
sV07092
p2253
I7092
sV07091
p2254
I7091
sV07090
p2255
I7090
sV07099
p2256
I7099
sV07098
p2257
I7098
sV30099
p2258
I30099
sV30098
p2259
I30098
sV30095
p2260
I30095
sV30094
p2261
I30094
sV30097
p2262
I30097
sV30096
p2263
I30096
sV30091
p2264
I30091
sV30090
p2265
I30090
sV30093
p2266
I30093
sV30092
p2267
I30092
sV15065
p2268
I15065
sV15064
p2269
I15064
sV15067
p2270
I15067
sV15066
p2271
I15066
sV15061
p2272
I15061
sV15060
p2273
I15060
sV15063
p2274
I15063
sV15062
p2275
I15062
sV15069
p2276
I15069
sV15068
p2277
I15068
sV16048
p2278
I16048
sV16049
p2279
I16049
sV16046
p2280
I16046
sV16047
p2281
I16047
sV16044
p2282
I16044
sV16045
p2283
I16045
sV16042
p2284
I16042
sV16043
p2285
I16043
sV16040
p2286
I16040
sV16041
p2287
I16041
sV20519
p2288
I20519
sV24051
p2289
I24051
sV24053
p2290
I24053
sV21008
p2291
I21008
sV21009
p2292
I21009
sV14097
p2293
I14097
sV21001
p2294
I21001
sV21002
p2295
I21002
sV21003
p2296
I21003
sV21004
p2297
I21004
sV21005
p2298
I21005
sV21006
p2299
I21006
sV21007
p2300
I21007
sV20511
p2301
I20511
sV20510
p2302
I20510
sV20516
p2303
I20516
sV21174
p2304
I21174
sV21175
p2305
I21175
sV21176
p2306
I21176
sV21177
p2307
I21177
sV21170
p2308
I21170
sV21171
p2309
I21171
sV21172
p2310
I21172
sV21173
p2311
I21173
sV21178
p2312
I21178
sV21179
p2313
I21179
sV32026
p2314
I32026
sV32027
p2315
I32027
sV32024
p2316
I32024
sV32025
p2317
I32025
sV32022
p2318
I32022
sV32023
p2319
I32023
sV32020
p2320
I32020
sV32021
p2321
I32021
sV14094
p2322
I14094
sV32028
p2323
I32028
sV32029
p2324
I32029
sV17027
p2325
I17027
sV17026
p2326
I17026
sV17025
p2327
I17025
sV17024
p2328
I17036
sV17023
p2329
I17023
sV17022
p2330
I17022
sV17021
p2331
I17021
sV17020
p2332
I17020
sV17029
p2333
I17029
sV17028
p2334
I17028
sV20201
p2335
I20201
sV05011
p2336
I5011
sV05010
p2337
I5010
sV05013
p2338
I5013
sV05012
p2339
I5012
sV05015
p2340
I5015
sV05014
p2341
I5014
sV05017
p2342
I5017
sV05016
p2343
I5016
sV05019
p2344
I5019
sV05018
p2345
I5018
sV26018
p2346
I26018
sV26019
p2347
I26019
sV20537
p2348
I20537
sV20536
p2349
I20536
sV20535
p2350
I20535
sV20534
p2351
I20534
sV20533
p2352
I20533
sV20532
p2353
I20532
sV20531
p2354
I20531
sV20530
p2355
I20530
sV14125
p2356
I14125
sV14124
p2357
I14124
sV14123
p2358
I14123
sV14122
p2359
I14122
sV14121
p2360
I14121
sV14120
p2361
I14120
sV09004
p2362
I9004
sV20403
p2363
I20403
sV20402
p2364
I20402
sV20401
p2365
I20401
sV08028
p2366
I8028
sV20407
p2367
I20407
sV20406
p2368
I20406
sV20405
p2369
I20405
sV20404
p2370
I20404
sV20409
p2371
I20409
sV20408
p2372
I20408
sV13049
p2373
I13049
sV13048
p2374
I13048
sV08022
p2375
I8022
sV13041
p2376
I13041
sV13040
p2377
I13040
sV13043
p2378
I13043
sV13042
p2379
I13042
sV13045
p2380
I13045
sV13044
p2381
I13044
sV13047
p2382
I13047
sV13046
p2383
I13046
sV15098
p2384
I15098
sV15099
p2385
I15099
sV15090
p2386
I15090
sV15091
p2387
I15091
sV15092
p2388
I15092
sV15093
p2389
I15093
sV15094
p2390
I15094
sV15095
p2391
I15095
sV15096
p2392
I15096
sV08026
p2393
I8026
sV09008
p2394
I9008
sV30207
p2395
I30207
sV08024
p2396
I8024
sV20249
p2397
I20249
sV20357
p2398
I20357
sV29002
p2399
I29002
sV29003
p2400
I29003
sV29004
p2401
I29061
sV29005
p2402
I29005
sV29006
p2403
I29006
sV20356
p2404
I20356
sV20241
p2405
I20241
sV29009
p2406
I29009
sV20243
p2407
I20243
sV20242
p2408
I20242
sV20245
p2409
I20245
sV20355
p2410
I20355
sV20247
p2411
I20247
sV20246
p2412
I20246
sV08041
p2413
I8041
sV08040
p2414
I8040
sV08043
p2415
I8043
sV20354
p2416
I20354
sV08045
p2417
I8045
sV08044
p2418
I8044
sV08047
p2419
I8047
sV08046
p2420
I8046
sV08049
p2421
I8049
sV20421
p2422
I20421
sV20420
p2423
I20420
sV20423
p2424
I20423
sV20422
p2425
I20422
sV07080
p2426
I7080
sV07081
p2427
I7081
sV07082
p2428
I7082
sV07083
p2429
I7083
sV07084
p2430
I7084
sV07085
p2431
I7085
sV07086
p2432
I7086
sV07087
p2433
I7087
sV07088
p2434
I7088
sV07089
p2435
I7089
sV20001
p2436
I20001
sV14099
p2437
I14099
sV30088
p2438
I30088
sV30089
p2439
I30089
sV30086
p2440
I30086
sV30087
p2441
I30087
sV30084
p2442
I30084
sV30085
p2443
I30085
sV30082
p2444
I30082
sV30083
p2445
I30083
sV30080
p2446
I30080
sV30081
p2447
I30081
sV14098
p2448
I14127
sV20058
p2449
I20058
sV20050
p2450
I20050
sV20059
p2451
I20059
sV15076
p2452
I15076
sV15077
p2453
I15077
sV15074
p2454
I15074
sV15075
p2455
I15075
sV15072
p2456
I15072
sV15073
p2457
I15073
sV15070
p2458
I15070
sV15071
p2459
I15071
sV15078
p2460
I15078
sV15079
p2461
I15079
s.